
 Start         Length     Name                   Class
 0001:00000000 00012D030H cseg01                 CODE
 0002:00000000 000000096H cseg02                 CODE
 0003:00000000 00009FFE0H dseg03                 STACK
 0004:00000000 000001B58H dseg04                 DATA


  Address         Publics by Value

 0001:00010000       ___dbgtrap
 0001:00010003       ___begtext
 0001:00010010       do_weapon_quantities_proper_to_player
 0001:000101F0       place_default_player
 0001:0001075C       move_matching_people_to_empty
 0001:000107C0       make_group_into_players
 0001:00010CA0       unkn_truce_groups
 0001:00010F10       fill_netgame_agent_pos
 0001:00010F94       unkn1_handle_agent_groups
 0001:000110EC       do_weapon_quantities_proper
 0001:00011428       do_weapon_quantities
 0001:00011560       place_single_player
 0001:000116A4       simulated_level
 0001:00011860       update_group_actions
 0001:000118E4       init_player
 0001:00011B9C       main_
 0001:00011EE5       main_case_b
 0001:00011EF1       main_case_def
 0001:00012040       unused_func_068
 0001:000120E4       draw_unkn_func_069
 0001:000122FC       draw_sorted_sprite
 0001:0001247C       display_unkn14
 0001:0001260C       init_engine
 0001:000126D0       process_engine_unk1
 0001:000127C4       calc_mouse_pos
 0001:0001293C       process_engine_unk2
 0001:00012B60       setup_engine_nullsub4
 0001:00012B64       draw_mapwho_vect
 0001:00012FDC       draw_mapwho_vect_len
 0001:000134F4       draw_e_graphic
 0001:000137C0       draw_e_graphic_scale
 0001:00013CA4       draw_pers_e_graphic
 0001:00014294       draw_unkn_func_070
 0001:000145B4       FIRE_draw_fire
 0001:00014870       display_unkn25
 0001:0001493C       draw_bang
 0001:0001589C       draw_shrapnel
 0001:000159B0       draw_phwoar
 0001:00015B08       unused_inlined_func_069
 0001:00015BAC       process_child_object
 0001:00015CB8       do_car_glare
 0001:00015EC0       draw_thing_object
 0001:00016A38       draw_rot_object
 0001:00018E1C       draw_rot_object2
 0001:0001AE18       draw_object
 0001:0001BFF8       draw_hud_health_bar
 0001:0001C1BC       draw_hud_shield_bar
 0001:0001C2CC       number_player
 0001:0001C7F0       draw_unkn_func_077
 0001:0001C9A0       draw_unkn_func_078
 0001:0001EF68       unused_func_070
 0001:0001F220       draw_unkn1_rect
 0001:0001F368       draw_new_panel
 0001:00020100       draw_hud_lock_target_rocket
 0001:0002017C       draw_hud_lock_target
 0001:000202C0       draw_target_vehicle
 0001:00020648       draw_target_person
 0001:00020938       show_goto_point
 0001:00020B10       unused_func_071
 0001:00020B50       draw_engine_net_text
 0001:00020C80       draw_hud
 0001:000212DC       process_engine_unk3
 0001:00022C20       unused_func_072
 0001:00022C78       W?display_drawlist$n()v
 0001:000236E0       W?display_drawlist2$n()v
 0001:00024758       check_mouse_overvehicle
 0001:0002585C       display_unkn2
 0001:00025954       unused_func_073
 0001:00025990       unused_func_074
 0001:000259FC       draw_vehicle_health
 0001:00025CB0       unused_func_075
 0001:00025F44       draw_vehicle_shadow
 0001:00026CD0       draw_effect_object_face
 0001:00027070       display_unkn12
 0001:000274D0       display_unkn10
 0001:00027638       display_unkn10b
 0001:00027BBC       display_unkn24
 0001:00027D78       display_unkn9b
 0001:00028568       display_unkn23
 0001:00028800       display_unkn13
 0001:00028AA4       display_unkn16
 0001:00028F90       display_unkn18
 0001:000292C0       display_unkn6
 0001:000295E4       display_unkn17
 0001:0002980C       calculate_enginepoint_shade_1
 0001:000298E0       calculate_enginepoint_shade_2
 0001:000299B4       display_unkn9
 0001:00029E90       display_unkn8
 0001:0002A550       display_unkn11
 0001:0002AB9C       unused_func_076
 0001:0002ABE0       display_unkn22
 0001:0002ACF0       unused_func_077
 0001:0002ADE8       draw_screen
 0001:0002B324       draw_screen_0
 0001:0002B3C0       transform_point
 0001:0002B558       unused_func_079
 0001:0002B5A8       display_unkn4
 0001:0002B8B8       draw_explode
 0001:0002E280       unused_func_080
 0001:0002E318       animate_textures
 0001:0002E404       local_to_worldr
 0001:0002FE80       unused_func_081
 0001:0002FF50       rotate_thing_point
 0001:0002FFC0       unused_func_082
 0001:00030160       unused_func_083
 0001:000301A0       fill_floor_textures
 0001:0003027C       read_primveh_obj
 0001:000305A8       find_nearest_object2
 0001:0003076C       load_missions
 0001:000308FC       unused_load_genvehic
 0001:00030944       unused_load_weapon_defs
 0001:0003098C       unused_load_moddefs
 0001:000309D4       game_setup_sub8
 0001:00030A9C       level_misc_update
 0001:00030B7C       load_objectives_text
 0001:00030C24       unkn_f_pressed_func
 0001:00030CFC       load_mad_console_0
 0001:00031840       search_things_for_index
 0001:000318C8       search_things_for_uniqueid
 0001:00031954       unused_sub_31954
 0001:000319E4       unkn_lights_processing
 0001:00031C38       unkn_buildings_processing
 0001:00031E7C       new_thing_type10
 0001:00031F6C       fix_single_objective
 0001:00032060       find_platform
 0001:000320B4       fix_level_indexes
 0001:00032578       load_tmap_ani_unused
 0001:0003260C       save_tmap_ani_unused
 0001:0003266C       unused_func_086
 0001:00032718       thing_light_unkn_087_unused
 0001:00032830       thing_light_unkn_088_unused
 0001:000328F4       thing_all_lights_unkn_089_unused
 0001:0003293C       change_current_map
 0001:0003295C       save_user_settings
 0001:00032B88       rewrite_cheats_in_keys_unused
 0001:00032BCC       reload_salt_from_keys_unused
 0001:00032C10       save_crypto_transform1
 0001:00032CB8       save_crypto_transform2
 0001:00032D60       save_crypto_transform3
 0001:00032E10       save_crypto_unused_func_090
 0001:00032E2C       save_crypto_make_hashtable
 0001:00032F00       unused_func_091
 0001:00033010       unused_func_092
 0001:00033150       unused_func_093
 0001:00033290       unused_func_094
 0001:00033424       save_game_checksum
 0001:00033478       load_game
 0001:0003422C       save_game
 0001:00034A84       open_file_from_wad
 0001:00034B98       load_file_wad
 0001:00034CF4       read_conf_file
 0001:00034F2C       unused_func_096
 0001:00034F94       LbGhostTableGenerate_
 0001:000350CC       LbGhostTableLoad_
 0001:00035128       PacketRecord_OpenWrite
 0001:000351AC       PacketRecord_OpenRead
 0001:000351FC       PacketRecord_Close
 0001:00035210       PacketRecord_Write
 0001:00035284       PacketRecord_Read
 0001:00035300       show_black_screen
 0001:00035324       play_intro
 0001:000353EC       W?init_syndwars$n()v
 0001:000354AC       load_pop_sprites_lo
 0001:00035540       load_pop_sprites_hi
 0001:000355CC       load_multicolor_sprites
 0001:00035644       smack_mfree
 0001:00035648       unused_func_097
 0001:0003565C       W?setup_host$n()v
 0001:0003595C       W?host_reset$n()v
 0001:000359C0       smack_malloc
 0001:000359E0       smack_malloc_free_all
 0001:000359F0       LbIffSave_
 0001:00036200       W?get_highest_file_no$n(pnaucpna)ul
 0001:0003643C       do_change_mouse
 0001:00036480       do_rotate_map
 0001:00036638       do_scroll_map
 0001:00036D14       weapon_select_input
 0001:000370F4       do_user_interface
 0001:00038BEC       get_next_player
 0001:00038CE8       process_send_person
 0001:00038DC8       check_panel_button
 0001:0003A260       process_panel_state
 0001:0003AA04       process_mouse_imputs
 0001:0003B5A4       game_graphics_inputs
 0001:0003BAE4       init_game_controls
 0001:0003BBD8       font_word_length
 0001:0003BC1C       load_packet
 0001:0003CD0C       build_packet
 0001:0003CF38       build_packet2
 0001:0003D174       build_packet3
 0001:0003D3B0       build_packet4
 0001:0003D5F0       change_brightness
 0001:0003D6EC       set_default_brightness
 0001:0003D700       read_palette_file
 0001:0003D72C       draw_game
 0001:0003D820       init_game
 0001:0003D9D8       game_process_sub08
 0001:0003DB94       game_process_sub09
 0001:0003DC00       copy_to_screen
 0001:0003DC68       joy_input
 0001:0003DD74       game_process_sub01
 0001:0003DE08       W?input$n()v
 0001:0003DE68       unused_func_098
 0001:0003DEA0       unused_func_099
 0001:0003DEF4       unused_func_100
 0001:0003DF58       debug_check_unkn_sprite_size
 0001:0003DF90       unused_func_101
 0001:0003E124       unused_func_102
 0001:0003E18C       W?game_process$n()v
 0001:0003E728       process_packets
 0001:0003FDCC       unused_func_010
 0001:0003FE78       unused_func_011
 0001:0003FF04       net_unkn_check_1
 0001:000403E0       unused_func_103
 0001:00040434       unused_func_012
 0001:000408A4       unused_func_013
 0001:0004092C       game_setup_stuff
 0001:000409F8       clear_unkn_func_014_unused
 0001:00040A64       set_default_user_settings
 0001:00040D78       load_user_settings
 0001:000410FC       update_unkn_changing_colors
 0001:0004113C       setup_color_lookups
 0001:000415B8       load_prim_quad
 0001:00041638       unused_func_016
 0001:00041668       W?game_setup$n()v
 0001:00041914       W?game_reset$n()v
 0001:00041928       unused_func_017
 0001:00041950       load_texturemaps
 0001:00041A70       free_texturemaps
 0001:00041A80       veh_add
 0001:00041EC0       find_face_texture
 0001:00041FDC       unused_func_018
 0001:00042060       unused_func_019
 0001:0004230C       calc_object_height
 0001:00042380       update_texture_from_anim_tmap
 0001:00042404       setup_screen_mode
 0001:00042574       draw_purple_rect
 0001:000425F8       critical_action_input
 0001:000426FC       draw_unkn_func_07
 0001:00042864       point_unkn_func_03
 0001:000428B8       map_things_unkn_func_04
 0001:00042A84       read_textwalk
 0001:00042AB8       rotate_texture
 0001:00042BA0       apply_full_light
 0001:00042D00       is_animating
 0001:00042D58       element_unkn_func_05
 0001:00042E70       frame_unkn_func_06
 0001:000431E4       apply_super_quick_light
 0001:00043410       light_cmd_unkn_func_05
 0001:000434A4       light_cmd_unkn_func_06
 0001:000435F8       unkn_update_lights
 0001:00043A6C       quick_light_unused_func_020
 0001:00043B68       quick_light_unkn_func_04
 0001:00043D2C       quick_light_unkn_func_05
 0001:00043F88       quick_light_unkn_func_06
 0001:00044850       quick_light_unkn_func_07
 0001:00044D74       quick_light_unkn_func_08
 0001:00044F04       quick_light_unkn_func_09
 0001:00045020       unkn_obj_faces4_lights_func_10
 0001:0004557C       unkn_lights_func_11
 0001:00045B40       LbRandomAnyShort
 0001:00045B68       LbRandomPosShort
 0001:00045B84       calc_normal
 0001:00045DD4       calc_normal4
 0001:00046030       unkn_object_shift_03
 0001:00046370       unkn_object_shift_02
 0001:00046498       matrix_identity_fill
 0001:000464D8       matrix_transform
 0001:00046544       unused_func_104
 0001:000466B0       object_vec_normalisation
 0001:00046710       vec_cross_prod
 0001:00046754       rotate_object_axis
 0001:0004696C       rotate_obj
 0001:00046AA4       unused_func_105
 0001:00046B1C       unused_func_106
 0001:00046B94       unused_func_107
 0001:00046C0C       unused_func_108
 0001:00046C80       add_node_thing
 0001:00046D40       add_node_sthing
 0001:00046DEC       delete_node
 0001:00046EEC       delete_snode
 0001:00046FB0       move_mapwho
 0001:000470FC       move_smapwho
 0001:00047210       gun_out_anim
 0001:00047300       get_weapon_range
 0001:000473D4       choose_best_weapon_for_range
 0001:000474A0       calc_person_speed
 0001:00047530       check_weapon
 0001:000475E0       set_person_animmode_walk
 0001:000476A0       set_person_animmode_run
 0001:00047768       check_person_within
 0001:000477E4       change_player_angle
 0001:0004783C       set_interrupt_target
 0001:000479C0       person_drops_weapons
 0001:00047B7C       find_alternative_player
 0001:00047BD4       scare_civs
 0001:00047D40       alert_peeps
 0001:00047F24       peep_change_weapon
 0001:00048008       stop_looped_weapon_sample
 0001:000480DC       set_person_dead
 0001:00048600       init_recoil
 0001:00048868       person_hit_by_bullet
 0001:000491F0       snap_razor_wire
 0001:00049294       person_hit_razor_wire
 0001:00049858       destroy_building
 0001:0004987C       bul_hit_building_thing
 0001:000498DC       bul_hit_vector
 0001:0004999C       do_move_colide
 0001:00049EA8       check_for_people
 0001:0004A018       should_i_get_item
 0001:0004A118       check_for_other_people
 0001:0004A63C       unused_calc_lighting_0
 0001:0004A6D8       unused_func_109
 0001:0004A700       calc_lighting
 0001:0004A7F8       nullsub_3
 0001:0004A7FC       unkn_update_thing_to_light
 0001:0004A870       process_lighting_unkn1
 0001:0004A974       create_intelligent_door
 0001:0004AB2C       process_random_speech
 0001:0004AC18       person_move
 0001:0004BA98       process_wander_and_fly
 0001:0004BB8C       process_wander
 0001:0004BFFC       set_angle_to_avoid_group
 0001:0004C134       process_avoid_group
 0001:0004C210       get_weapon_out
 0001:0004C30C       check_until
 0001:0004C374       find_peep_in_area
 0001:0004C42C       find_bezier_nav_point
 0001:0004C7AC       person_init_command
 0001:0004D9B8       person_goto_point_rel
 0001:0004DBB8       quick_can_see
 0001:0004DC14       do_person_gotothingindex
 0001:0004E178       person_goto_point
 0001:0004E698       person_wait
 0001:0004E894       person_dieing
 0001:0004E9D0       person_vanish
 0001:0004EA2C       person_dead
 0001:0004EB0C       person_pickup
 0001:0004ED60       person_weapon_count
 0001:0004EDA8       person_init_pickup
 0001:0004F048       person_unkn_start_get_item
 0001:0004F208       set_get_item
 0001:0004F2FC       do_i_have_weapon
 0001:0004F5B8       give_take_me_weapon
 0001:0004F9F4       send_another_player_peep
 0001:0004FBE4       person_init_get_item_fast
 0001:0004FEC8       person_init_get_item
 0001:0005010C       person_init_plant_mine_fast
 0001:00050140       person_init_plant_mine
 0001:000501F0       plant_mine
 0001:000502F8       person_drop_item
 0001:000505B0       person_init_drop
 0001:00050634       person_init_drop_special
 0001:000506F0       unused_func_110
 0001:00050834       unused_func_111
 0001:0005084C       person_save_victim
 0001:00050898       person_goto_person_nav
 0001:00050CD4       person_persuade_person
 0001:00050E0C       peep_return_to_point
 0001:00050E78       person_kill_target2
 0001:00051590       person_kill_person
 0001:00051778       person_destroy_building
 0001:0005191C       person_block_person
 0001:000519AC       person_scare_person
 0001:00051A2C       process_im_shoved
 0001:00051A94       unused_func_112
 0001:00051C04       limit_mood
 0001:00051CA4       process_stamina
 0001:00051D5C       check_persons_target
 0001:00051E5C       unused_func_113
 0001:00051EC8       check_persons_target2
 0001:00051FA4       get_soul
 0001:00052020       process_soul
 0001:00052290       player_weapon_time
 0001:00052384       set_player_weapon_turn
 0001:000523E4       make_person_point_at_person
 0001:0005247C       process_weapon
 0001:00053A80       process_stationary_shot
 0001:00053AA0       person_recoil
 0001:00053CB4       person_poke
 0001:00053D8C       person_burning
 0001:00053F54       person_run_away
 0001:00054130       process_danger
 0001:0005418C       try_and_kill_target
 0001:00054228       search_floor_for_item
 0001:000543C8       person_get_item
 0001:00054508       person_go_plant_mine
 0001:0005452C       qdist_to_thing
 0001:00054564       person_use_vehicle
 0001:000545E4       person_unkn_leave_veh
 0001:00054744       person_catch_train
 0001:000547C0       person_wait_train
 0001:000547E0       process_follow_person
 0001:00054824       process_support_person
 0001:000548AC       copy_owner_with_weapon
 0001:00054AF0       shall_i_shoot_as_well
 0001:00054B54       process_protect_person
 0001:00055390       persuaded_peep_get_item
 0001:000553DC       person_being_persuaded
 0001:000554B8       process_persuaded
 0001:000557D4       is_group_all_persuaded_by_me
 0001:00055870       is_group_all_dead
 0001:000558B8       find_nearest_player
 0001:00055978       find_nearest_from_group
 0001:00055AC0       assign_next_target_from_group
 0001:00055B60       is_command_completed
 0001:00055CB8       person_wait_vehicle
 0001:00055DD8       process_knocked_out
 0001:00055EC8       set_peep_comcur
 0001:00056050       process_person
 0001:00056ADC       apply_texture_to_face
 0001:00056B88       process_intelligent_door
 0001:00056D20       process_burning_static
 0001:00056D5C       process_static
 0001:00056DD8       unused_inlined_func_114
 0001:00056E34       build_same_type_headers
 0001:00056FAC       process_shield
 0001:000570D0       process_time_travel
 0001:00057100       process_carried_item
 0001:00057158       process_sfx
 0001:000571E4       create_temp_light
 0001:00057244       process_temp_light
 0001:000572B8       process_shield_anim
 0001:000572F8       process_things
 0001:00057D30       set_player_peeps_to_run
 0001:00057DCC       thing_goto_point_rel_fast
 0001:00057E18       thing_goto_point_rel
 0001:00058054       thing_goto_point_fast
 0001:000580A0       clear_player_protectors_paths
 0001:0005811C       thing_goto_point
 0001:000583D8       thing_goto_point_on_face_fast
 0001:0005841C       thing_goto_point_on_face
 0001:00058704       init_lay_razor
 0001:00058770       thing_shoot_at_point
 0001:00058CF8       shall_i_change_to_fire_at_point
 0001:00058D20       thing_shoot_at_thing
 0001:00058FA0       person_init_follow_person
 0001:00058FF0       can_i_enter_vehicle
 0001:00059088       person_go_enter_vehicle_fast
 0001:000590C4       person_go_enter_vehicle
 0001:000591FC       person_enter_vehicle
 0001:00059274       person_attempt_to_leave_vehicle
 0001:00059378       vector_in_way
 0001:000594BC       yank_from_vehicle
 0001:0005957C       person_leave_vehicle
 0001:00059E0C       find_nth_weapon_held
 0001:00059E98       select_new_weapon
 0001:00059F48       call_unprotect
 0001:0005A000       make_peep_protect_peep
 0001:0005A06C       call_protect
 0001:0005A180       call_protect_specific
 0001:0005A218       count_protect
 0001:0005A26C       person_go_insane
 0001:0005A2C0       person_go_sleep
 0001:0005A394       person_stop_insane
 0001:0005A3D8       find_nearest_person_min
 0001:0005A4D0       init_electricity_bomb
 0001:0005A568       player_change_person
 0001:0005A73C       thing_select_specific_weapon
 0001:0005AA3C       person_hit_by_car
 0001:0005AD58       person_self_destruct
 0001:0005AEF8       person_shield_toggle
 0001:0005AF44       is_it_a_crap_weapon
 0001:0005AF6C       make_peeps_scatter
 0001:0005B2FC       kill_my_players
 0001:0005B370       unused_func_339
 0001:0005B3B0       unused_func_338
 0001:0005B410       unused_func_340
 0001:0005B440       unused_func_115
 0001:0005B598       do_shockwave
 0001:0005BBE0       check_for_radius_hit_person
 0001:0005C054       do_fvect_colide
 0001:0005C1C0       bul_path_end
 0001:0005C4C8       laser_hit_at
 0001:0005C794       check_col_collision_floor
 0001:0005C888       check_col_collision
 0001:0005CA40       unused_func_116
 0001:0005CB0C       check_big_point_triangle
 0001:0005CBC4       unused_func_117
 0001:0005CC60       unused_func_118
 0001:0005CC88       unused_func_119
 0001:0005CD30       unused_func_120
 0001:0005CDF0       two4_line_intersection
 0001:0005CF5C       unused_func_121
 0001:0005CFF0       unused_func_122
 0001:0005D0A0       unused_func_123
 0001:0005D384       remove_col_list_item
 0001:0005D3B4       dynamic_add_collision_to_single_mapwho
 0001:0005D440       dynamic_insert_vect
 0001:0005D5B0       del_col_vect_from_mapwho
 0001:0005D694       delete_vect
 0001:0005D850       get_my_texture_bits
 0001:0005DB4C       search_object_for_qface
 0001:0005DC74       unused_func_125
 0001:0005DD7C       get_height_on_face
 0001:0005DF9C       get_height_on_face_quad
 0001:0005E20C       set_thing_height_on_face64
 0001:0005E4FC       set_thing_height_on_face
 0001:0005E544       set_thing_height_on_face_quad64
 0001:0005E7F0       set_thing_height_on_face_quad
 0001:0005E840       inside_the_quad
 0001:0005EAE0       inside_the_triangle
 0001:0005EC6C       find_and_set_connected_face
 0001:0005EEE8       unused_func_126
 0001:0005EFF0       unused_func_127
 0001:0005F0E0       unused_func_128
 0001:0005F6E4       del_thing_vectors_from_mapwho
 0001:0005F794       unused_func_129
 0001:0005F8B4       tank_los
 0001:00060090       unused_func_130
 0001:0006016C       unused_func_131
 0001:000601FC       create_unkn_building_subtp27
 0001:000602A4       unused_func_132
 0001:000609C4       alt_at_point
 0001:00060AC4       move_camera
 0001:00060BC4       track_player
 0001:00060CFC       track_y
 0001:00060D18       track_angle
 0001:00060DBC       process_view_inputs
 0001:00060EE0       gengine_ctrl
 0001:00060F50       show_game_engine
 0001:00060FD4       calc_bul_offsets
 0001:000610F4       unused_func_133
 0001:000618A0       on_mapwho
 0001:00061924       unused_func_134
 0001:00061E30       apply_unkn_vehicle50_damage
 0001:00062044       init_arrays_1
 0001:000620AC       unused_func_135
 0001:000620E0       unused_func_136
 0001:00062A38       mapwho_unkn01
 0001:00062E10       do_shockwave_vehicle
 0001:00062E94       do_shockwave_building
 0001:00062F0C       do_shockwave_person
 0001:0006315C       do_shockwave_scale_effect
 0001:000631BC       add_static
 0001:000632BC       init_nuclear_bomb
 0001:0006338C       create_scale_effect
 0001:00063484       explode_thing_object
 0001:00063DC0       sit_on_my_face
 0001:00063E40       do_people_on_exploding_building
 0001:00063F34       explode_thing_building
 0001:00064CC8       collapse_building
 0001:000652A8       do_explode
 0001:0006543C       local_rotate_point
 0001:000654C8       animate_explode
 0001:0006750C       unused_func_137
 0001:00067614       set_static_on_fire
 0001:00067BF0       build_polygon_circle_2d
 0001:00067EBC       build_polygon_circle
 0001:000681FC       build_time_pod
 0001:00068240       build_stasis_pod
 0001:00068440       unused_func_138
 0001:0006848C       build_polygon_slice
 0001:000687AC       build_wobble_line
 0001:00068C60       build_electricity_strand
 0001:00068D1C       build_electricity
 0001:00068E28       build_laser
 0001:0006953C       build_razor_wire
 0001:000697B0       do_beam_electric
 0001:00069A34       build_laser_beam
 0001:0006A2E0       build_laser_beam_q
 0001:0006ABC8       unused_func_139
 0001:0006AC28       unused_func_140
 0001:0006AC9C       unused_func_141
 0001:0006AF88       unused_func_142
 0001:0006B04C       unused_func_143
 0001:0006B080       unused_func_144
 0001:0006B138       gproc3_unkn_null_func_3
 0001:0006B13C       build_continuos_slice_3d
 0001:0006B254       unused_func_145
 0001:0006B3D4       calc_angle_rate
 0001:0006B490       build_laser_guided_piece
 0001:0006B634       build_glare
 0001:0006B8C0       check_unlock_target
 0001:0006B98C       make_peep_flee
 0001:0006B9E8       search_for_danger
 0001:0006BB78       longest_range_weapon
 0001:0006BB9C       current_weapon_range
 0001:0006BBC0       get_target_priority
 0001:0006BCF0       find_a_target
 0001:0006BF10       available_for_guard_duty
 0001:0006BF9C       set_guardian_to_save_victim
 0001:0006BFC0       find_best_guardian
 0001:0006C0BC       find_and_alert_guardian
 0001:0006C178       do_vect_colide
 0001:0006C28C       can_i_see_thing
 0001:0006C978       can_i_see_building
 0001:0006CB34       create_unkn_rocket_unused
 0001:0006CC0C       worth_killing
 0001:0006CC40       kill_flags
 0001:0006CCB0       find_target_from_players
 0001:0006CE04       find_target_from_persuaded_peeps
 0001:0006CF40       find_target_from_group
 0001:0006D250       person_intel
 0001:0006D284       person_becomes_persuaded
 0001:0006D3D8       stop_being_persuaded
 0001:0006D5D0       unpersuade_my_peeps
 0001:0006D76C       set_person_persuaded
 0001:0006D9F8       people_intel
 0001:0006DE00       setup_host_sub6
 0001:0006DE5C       flic_func_147
 0001:0006DEB0       flic_unkn02
 0001:0006DF90       flic_creation_unkn01
 0001:0006E604       play_smacker
 0001:0006E870       flic_unkn03
 0001:0006EC54       flic_netscan_open_anim
 0001:0006EC94       init_weapon_anim
 0001:0006EF28       unused_func_148
 0001:0006F800       unused_func_149
 0001:0006F828       thing_noop_unkn1
 0001:0006F82C       test_open
 0001:0006F830       unused_func_150
 0001:0006F878       draw_text
 0001:0006F9B0       debug_level
 0001:0006F9DC       player_debug
 0001:0006F9E0       unused_func_151
 0001:0006FA04       show_message
 0001:0006FAA8       nullsub_7
 0001:0006FAAC       unused_func_152
 0001:0006FB84       draw_line_transformed_at_ground
 0001:0006FC64       unused_func_153
 0001:0006FDB4       unkn_draw_transformed_point
 0001:0006FE0C       unused_func_154
 0001:000708B0       unused_func_155
 0001:00070958       draw_3d_map_corn_square
 0001:00070BD8       unused_func_156
 0001:00070C50       draw_text_transformed_at_ground
 0001:00070CDC       unused_func_157
 0001:00070DFC       unused_func_158
 0001:00070E90       draw_unkn1_bar
 0001:00070F94       draw_engine_unk3_last
 0001:00071448       unused_func_159
 0001:00073798       gproc3_unknsub2
 0001:00073B98       unused_func_160
 0001:00073D08       init_person_thing
 0001:00073F9C       set_person_stats_type
 0001:000740FC       init_scanner
 0001:00074254       init_memory
 0001:00074398       engine_reset
 0001:00074408       init_traffic
 0001:0007445C       init_level_3d
 0001:000745B4       global_3d_store
 0001:00074718       search_for_station
 0001:0007486C       train_related_func_01
 0001:00074AF8       unused_func_161
 0001:00074B58       unused_func_162
 0001:00074C4C       clear_mission_status
 0001:00074CDC       init_level
 0001:00075508       unused_func_163
 0001:0007564C       unused_func_164
 0001:00075674       replace_thing_given_thing_idx
 0001:00075828       create_item
 0001:000759DC       new_sim_person
 0001:00075C3C       init_lists
 0001:00075CF0       init_just_things
 0001:00075DDC       init_things
 0001:00075E30       get_new_thing
 0001:00076050       remove_thing
 0001:00076120       get_new_sthing
 0001:000761B8       remove_sthing
 0001:00076270       swoosh_veh
 0001:00076354       remove_locks
 0001:00076438       remove_locks_apart_from_agok
 0001:000764D4       can_the_tank_run_over
 0001:0007658C       flatten_vehicle
 0001:00076638       check_tank_collision
 0001:0007698C       process_tank_stationary
 0001:00076AA4       process_mech_stationary_UNSURE
 0001:00076C2C       process_mech
 0001:00076F2C       check_person_close
 0001:00077040       process_tank
 0001:00077434       process_stop_as_soon_as_you_can
 0001:00077584       shadow_alt_at_point
 0001:00077624       alt_at_point_under_height
 0001:000776E0       unused_func_165
 0001:00077770       flying_alt
 0001:000778DC       process_parked_flyer
 0001:0007794C       process_hovering_vehicle
 0001:000779C8       process_my_takeoff
 0001:00077B24       process_my_flying_vehicle
 0001:00077D74       process_my_land_vehicle
 0001:00077E34       process_my_crashing_vehicle
 0001:0007811C       start_crashing
 0001:000781B8       unused_func_166
 0001:00078240       start_landing
 0001:00078280       continue_flying_wander
 0001:0007841C       start_goto_vehicle
 0001:0007872C       process_stopping
 0001:000788CC       check_for_a_moving_vehicle_here
 0001:00078AC8       process_unstopping
 0001:00078C3C       process_unplacing
 0001:00078D8C       exit_pod
 0001:00078E30       hilight_shuttle_slice
 0001:00078E60       unlight_shuttle_slice
 0001:00078E90       process_shuttle_pod
 0001:00078FA8       good_node
 0001:00079060       one_good_choice
 0001:000790AC       get_next_tnode
 0001:00079310       unused_func_167
 0001:00079350       process_next_vnav_turn
 0001:00079510       set_vehicle_alt
 0001:00079588       check_for_a_vehicle_here
 0001:00079794       process_next_tnode
 0001:0007A888       thing_unkn_change_speed
 0001:0007A92C       train_unkn_st18_func_2
 0001:0007ACE8       train_unkn_st18_func_1
 0001:0007B094       unused_func_168
 0001:0007B0A0       check_two_vehicles
 0001:0007B268       check_vehicle_col
 0001:0007B67C       move_flying_vehicle
 0001:0007B808       move_vehicle
 0001:0007BA34       set_passengers_location
 0001:0007BAEC       unused_func_169
 0001:0007BB2C       process_vehicle_goto_point_takeoff
 0001:0007BB78       process_vehicle_goto_point_land
 0001:0007BBDC       scan_max_height_ahead
 0001:0007BD18       process_vehicle_goto_point_fly
 0001:0007BDFC       person_clear_route_and_teleport_to_vehicle
 0001:0007BE58       train_unkn_func_02
 0001:0007BF7C       train_unkn_st20_func_1
 0001:0007C104       set_xz_for_unkn3
 0001:0007C218       unused_train_exit_func_2
 0001:0007C288       train_unkn_st21_exit_func_1
 0001:0007C358       unused_func_171
 0001:0007C3B8       unused_func_172
 0001:0007C430       process_tank_turret
 0001:0007C5C0       unused_func_173
 0001:0007C624       process_vehicle
 0001:0007CDE4       init_vehicle_explode
 0001:0007CFC0       track_target
 0001:0007D100       init_mgun_laser
 0001:0007D37C       shoot_at_target
 0001:0007D3A4       rotate_object
 0001:0007D424       aquire_target
 0001:0007D5C8       mounted_los
 0001:0007D710       process_mounted_gun
 0001:0007D848       set_object_flag
 0001:0007D908       set_dome_col
 0001:0007D974       do_dome_rotate1
 0001:0007DAB4       process_dome1
 0001:0007DBD8       init_gate_open
 0001:0007DC00       init_gate_close
 0001:0007DC28       apply_object_morph
 0001:0007DEAC       process_gate1
 0001:0007E4B8       create_a_pod
 0001:0007E594       process_shuttle_loader
 0001:0007E660       process_building
 0001:0007E78C       init_mgun_explode
 0001:0007E840       unused_func_174
 0001:0007E850       unused_func_175
 0001:0007E85C       W?Synd_nav_rulesA2B$n(ll)l
 0001:0007E868       W?Unkn1_nav_rulesA2B$n(ll)l
 0001:0007E874       W?Unkn2_nav_rulesA2B$n(ll)l
 0001:0007E880       W?SHDIV14$n(ll)l
 0001:0007E898       triangulation_initialize
 0001:0007E918       W?triangulation_allocate$n(ll)v
 0001:0007E9AC       triangulation_select
 0001:0007EA50       triangulation_set_max_triangles
 0001:0007EA80       W?tri_dispose$n(l)v
 0001:0007EAB4       W?tri_new$n()l
 0001:0007EB10       W?point_dispose$n(l)v
 0001:0007EB48       W?point_new$n()l
 0001:0007EB98       triangulation_init_edges
 0001:0007EC24       W?triangulation_initxy$n(llll)v
 0001:0007ED68       W?triangulation_init$n()v
 0001:0007EDA0       W?triangulation_clear$n()v
 0001:0007EE5C       W?save_triangulation$n()v
 0001:0007EE94       W?link_find$n(ll)l
 0001:0007EED8       W?pointed_at8$n(llpnlpnl)l
 0001:0007F0A0       W?point_loop$n(ll)l
 0001:0007F128       W?triangle_contains8$n(lll)l
 0001:0007F264       W?point_quad_status$n(llll)l
 0001:0007F548       W?clear_find_cache$n()v
 0001:0007F554       W?triangle_brute_find8$n(ll)l
 0001:0007F5AC       W?triangle_find8$n(ll)l
 0001:0007F950       W?point_find$n(llpnlpnl)l
 0001:0007FA3C       W?edge_find$n(llllpnlpnl)l
 0001:0007FBE4       W?triangle_findSE8$n(ll)l
 0001:0007FD8C       W?edge_rotateAC$n(ll)l
 0001:00080230       tri_split3
 0001:000804DC       tri_split2
 0001:00080630       W?edge_split$n(llll)v
 0001:00080720       W?line_intersect8$n(llllllllpnlpnl)v
 0001:00080800       W?insert_point$n(ll)v
 0001:00080A64       W?reduce_point$n(pnlpnl)l
 0001:00080B24       W?make_3or4point$n(pnlpnl)l
 0001:00080C94       W?edge_collapse$n(llll)v
 0001:00080D44       W?delete_4point$n(ll)l
 0001:00081218       W?delete_3point$n(ll)l
 0001:00081540       W?delete_point$n(ll)v
 0001:000816A4       W?triangle_reppoint8$n(lpnlpnl)v
 0001:00081804       W?fill_concave$n(lll)l
 0001:00081964       W?make_edge$n(llll)v
 0001:00081DB4       W?quad_split$n(llllpnlpnl)v
 0001:00081EAC       W?make_clip_list$n(llll)v
 0001:00082308       W?make_clipped_edges$n(ll)v
 0001:00082420       W?thin_wall$n(llllll)v
 0001:00082478       W?triangle_area1$n(l)l
 0001:000824E4       W?triangulation_area1$n()l
 0001:00082528       W?brute_fill_rectangle$n(lllluc)v
 0001:0008260C       W?fill_rectangle$n(lllluc)v
 0001:000827A0       W?tri_set_rectangle$n(lllluc)v
 0001:00082840       triangle_get_points_xy_dist_div_3
 0001:000828AC       triangle_get_relation_to_coords
 0001:0008297C       edge_points8
 0001:00082B2C       W?tags_init$n()v
 0001:00082B5C       W?triangle_route_do_given$n(llpnlpnlpnl)l
 0001:00083128       triangle_route_do_bak
 0001:000836F8       ma_triangle_route_given
 0001:00083834       W?triangle_route_do_unkn3$n(llpnlpnl)l
 0001:00083FA4       W?triangle_route_do_unkn4$n(llpnlpnl)l
 0001:000846FC       W?ma_triangle_route_3$n(llpnl)l
 0001:00084838       distance_unkn_is_above_128
 0001:000848A4       triangles_update_flags_unkn_1
 0001:00084924       W?triangle_route_do_unkn5$n(llpnlpnl)l
 0001:00085068       W?triangle_route_do_unkn6$n(llpnlpnl)l
 0001:000857AC       W?triangle_route_do_unkn7$n(llpnlpnl)l
 0001:00085F18       W?ma_triangle_route_3$n(llpnlpnl)l
 0001:00086068       W?ma_triangle_route_4$n(llpnl)l_0
 0001:00086144       bfsQ_clear
 0001:00086158       bfsQ_queue
 0001:00086184       bfsQ_get
 0001:000861B4       W?dfs_visit$n(l)v
 0001:0008638C       W?tree_to_route$n(llpnl)l
 0001:000863CC       W?dfs_search$n(llpnl)l
 0001:0008641C       optimise_heuristic
 0001:00086624       delaunay_step
 0001:000866C0       fringe_init
 0001:00086704       fringe_scan
 0001:000867AC       fringe_get_rectangle
 0001:000868C8       triangulate_set_rectangle
 0001:000868E0       triangulate_area
 0001:000869F8       triangulate_map
 0001:00086A14       W?fov_region$n(llpn$__8cl6tFOV$$)l
 0001:00086AB0       route_to_path
 0001:00086E0C       path_init8_thing
 0001:00086F04       path_init8_wide
 0001:00087028       path_init8_tank
 0001:00087118       path_init8_unkn3
 0001:00087210       point_new_from_top
 0001:00087224       tri_update_active_limits
 0001:0008723C       tri_path_init8
 0001:00087358       unused_func_188_sub1
 0001:000874B8       fatter_than_nothing
 0001:00087914       triangulation_select_0
 0001:00087D24       is_this_a_nice_place_for_a_picnic
 0001:00087EA8       unused_func_188
 0001:00087F98       make_triangle_solid
 0001:00087FC4       triangulation_unkn_func_002
 0001:00088320       triangulation_unused_func_189
 0001:000884B0       game_exit_unused
 0001:000884C4       game_vsync_unused
 0001:000884D8       game_conditional_exit_usused
 0001:00088588       string_to_upper
 0001:000885B0       init_crater_textures
 0001:00088E88       create_crater
 0001:00088F14       unused_func_191
 0001:00088FF0       is_that_a_sea_texture
 0001:0008907C       unkstruct03_do_iteration
 0001:00089CEC       unused_func_024
 0001:00089D90       unused_func_025
 0001:00089E94       unused_func_192
 0001:00089F90       unused_func_026
 0001:0008A1EC       unkstruct03_process
 0001:0008A220       sea_texture
 0001:0008A2BC       quick_crater
 0001:0008C4C0       reset_buffered_keys
 0001:0008C4D8       next_buffered_key
 0001:0008C510       LbIKeyboardOpen_
 0001:0008C554       LbIKeyboardClose_
 0001:0008C578       W?KInt$f()v_1
 0001:0008C70C       find_the_tall_buildings
 0001:0008C7F0       convert_to_language
 0001:0008C84C       show_unkn32_box
 0001:0008D0D8       show_unkn12
 0001:0008D300       show_login_name
 0001:0008D4E0       show_net_unkn23
 0001:0008E2BC       purple_unkn3_data_to_screen
 0001:0008E32C       purple_unkn4_data_to_screen
 0001:0008E398       purple_unkn1_data_to_screen
 0001:0008E3C0       show_net_unkn21
 0001:0008E7EC       show_net_unkn22
 0001:0008EB50       do_net_protocol_select
 0001:0008EDE0       show_net_unkn19
 0001:0008FBD8       show_net_unkn25
 0001:0008FED4       show_net_unkn24
 0001:000901E0       show_net_unkn27
 0001:000906E4       show_net_unkn26
 0001:00090D30       load_lost_wad_unused
 0001:00090D98       show_mission_stats
 0001:000917B8       show_unkn31_box
 0001:000924D0       show_unkn20
 0001:000930DC       show_unkn21_box
 0001:00093F30       show_unkn04
 0001:00094844       show_unkn33_box
 0001:00094990       show_netgame_unkn1
 0001:00094F08       show_menu_storage_unkn37_box
 0001:00095910       show_unkn29_box
 0001:00096F80       display_weapon_info
 0001:00097654       show_weapon_name
 0001:00097718       show_weapon_list
 0001:00097C44       draw_fourpack_slots
 0001:00097D5C       show_weapon_slots
 0001:00098278       show_agent_list
 0001:00098B80       show_blokey
 0001:00098F1C       show_unkn18_box
 0001:00099AC8       show_unkn36_box
 0001:00099E90       update_menus
 0001:00099FEC       W?init_screen_boxes$n()v
 0001:0009BA5C       show_netgame_unkn_case1
 0001:0009BBE4       show_unkn34_box
 0001:0009C5D8       show_netgame_unkn_case3
 0001:0009D460       show_main_screen
 0001:0009D4EC       show_pause_screen
 0001:0009D584       show_type11_screen
 0001:0009D628       show_mission_screen
 0001:0009D7B8       show_netgame_screen
 0001:0009DE34       unused_func_303
 0001:0009DEB8       show_research_screen
 0001:0009E0B8       show_equipment_screen
 0001:0009ECF0       show_cryo_chamber_screen
 0001:0009F5E0       show_date_time
 0001:0009FE28       unkn_research_func)006
 0001:000A0ED8       init_read_all_sprite_files
 0001:000A13D8       W?show_menu_screen$n()v
 0001:000A3440       W?my_set_text_window$n(usususus)v
 0001:000A3464       font_offset
 0001:000A34C8       my_char_to_upper
 0001:000A350C       my_string_width
 0001:000A35AC       my_preprocess_text
 0001:000A36FC       my_count_lines
 0001:000A38F0       draw_unkn20_subfunc_01
 0001:000A3A64       W?my_draw_text$n(sspnaus)us
 0001:000A4EDC       W?my_str_len$n(pna)ul
 0001:000A4EF0       flashy_draw_text
 0001:000A5090       update_player_cash
 0001:000A5104       do_start_triggers
 0001:000A51A4       unused_unkn_bank_check_1
 0001:000A51E4       unused_func_262
 0001:000A51E8       unused_func_263
 0001:000A520C       is_a_scientist_mission
 0001:000A523C       open_new_mission
 0001:000A52AC       tweak_for_compound_mission_m88_m100
 0001:000A53F0       tweak_for_compound_mission_m84
 0001:000A550C       delete_open_mission
 0001:000A5EC8       mission_over
 0001:000A633C       thing_arrived_at_obj
 0001:000A63A8       unused_func_260
 0001:000A63FC       thing_arrived_at_obj_radius
 0001:000A647C       unused_func_256
 0001:000A64D4       unused_func_257
 0001:000A6514       unused_func_258
 0001:000A6564       unused_func_259
 0001:000A6708       mem_group_arrived_square2
 0001:000A6898       mem_group_arrived
 0001:000A6AC0       all_group_arrived_square
 0001:000A6B3C       all_group_arrived
 0001:000A6BD0       group_not_seen
 0001:000A6C54       conditional_command_state_true
 0001:000A73E0       draw_objective_point
 0001:000A7448       draw_objective
 0001:000A7A68       do_near_blip
 0001:000A7AC4       do_group_scanner
 0001:000A7CAC       post_process_blips
 0001:000A7DB0       add_signal_to_scanner
 0001:000A824C       test_objective
 0001:000A8C48       test_single_mission
 0001:000A8EE8       init_mission_states
 0001:000A8FF8       test_missions
 0001:000A9230       veh_heap_init
 0001:000A9248       veh_heap_add
 0001:000A93B8       veh_heap_remove
 0001:000A9540       VNAV_find_nearnodes
 0001:000A962C       VNAV_unused_func_193
 0001:000A9684       VNAV_qwertyuiop
 0001:000A9800       car_here
 0001:000A9870       VNAV_find_dropoff_point
 0001:000A9F0C       VNAV_find_start_dropoff_point
 0001:000AA04C       VNAV_do
 0001:000AA4A0       VNAV_turn
 0001:000AA4C8       VNAV_there
 0001:000AA4D8       VNAV_can_i_get_there
 0001:000AA554       VNAV_goto
 0001:000AA978       VNAV_renavigate
 0001:000AAAC0       VNAV_process_bezier
 0001:000AACF4       VNAV_unkn_func_207
 0001:000AB1AC       VNAV_goto_and_unstop
 0001:000AB22C       VNAV_goto_and_unpark
 0001:000AB288       VNAV_goto_and_unplace
 0001:000AB2D4       VNAV_init_new_traffic_system
 0001:000AB5A0       SCANNER_process_arcpoints
 0001:000AB7AC       SCANNER_init_arcpoint
 0001:000AB968       SCANNER_set_colour
 0001:000AB9E4       SCANNER_unused_func_194
 0001:000ABA1C       SCANNER_init
 0001:000ABBBC       SCANNER_scanconvert
 0001:000ABF38       SCANNER_draw_triangle
 0001:000ABF6C       SCANNER_draw_quad
 0001:000ABFE0       SCANNER_draw_unkn1_unused
 0001:000AC090       SCANNER_draw_road
 0001:000AC1B8       SCANNER_draw_object
 0001:000AC4C8       SCANNER_find_colour
 0001:000AC57C       SCANNER_outline
 0001:000AC68C       SCANNER_fill_in
 0001:000AC9F8       SCANNER_draw_mark_point3_blink1
 0001:000ACA48       SCANNER_draw_mark_point5_blink3
 0001:000ACC30       SCANNER_draw_mark_point7
 0001:000ACE18       SCANNER_init_bbpoints
 0001:000ACE64       SCANNER_process_bbpoints
 0001:000ACF8C       SCANNER_unused_func_031
 0001:000AD188       SCANNER_find_position
 0001:000AD2F4       SCANNER_unkn_func_196
 0001:000ADF44       SCANNER_draw_new_transparent
 0001:000AFCE4       SCANNER_unused_func_197
 0001:000AFD60       SCANNER_unkn_func_200
 0001:000AFEF8       SCANNER_unkn_func_201
 0001:000AFF98       SCANNER_unkn_func_202
 0001:000B00E8       SCANNER_unkn_func_203
 0001:000B0204       SCANNER_unkn_func_204
 0001:000B08C0       SCANNER_unused_func_198
 0001:000B0908       SCANNER_unkn_func_205
 0001:000B0BCC       SCANNER_unused_func_199
 0001:000B0C30       SCANNER_fill_in_a_little_bit
 0001:000B0DE0       SCANNER_clear
 0001:000B0E00       bang_init
 0001:000B0EA4       unkn1_shrapnel
 0001:000B0ED4       bang_set_detail
 0001:000B10D8       get_some_shrapnel
 0001:000B1110       get_some_phwoar
 0001:000B1160       give_some_shrapnel
 0001:000B118C       give_some_phwoar
 0001:000B11D8       fillin_phwoar_type_info
 0001:000B1B30       bang_new_new
 0001:000B2638       bang_new_0
 0001:000B264C       bang_new
 0001:000B2660       block_screen_copy
 0001:000B26CC       button_text
 0001:000B2780       info_box_text
 0001:000B28AC       init_screen_box
 0001:000B28E8       init_screen_text_box
 0001:000B2964       init_screen_button
 0001:000B2A14       init_screen_info_box
 0001:000B2ACC       flashy_draw_purple_shape
 0001:000B3458       flashy_draw_purple_box
 0001:000B3DA4       flashy_draw_purple_text_box
 0001:000B59EC       flashy_draw_purple_button
 0001:000B6BEC       flashy_draw_purple_info_box
 0001:000B7548       copy_box_purple_list
 0001:000B75D8       draw_box_purple_list
 0001:000B766C       draw_text_purple_list2
 0001:000B773C       draw_sprite_purple_list
 0001:000B77C0       draw_trig_purple_list
 0001:000B7860       draw_triangle_purple_list
 0001:000B791C       draw_line_purple_list
 0001:000B79FC       draw_flic_purple_list
 0001:000B7A64       draw_hotspot_purple_list
 0001:000B7AFC       W?draw_purple_screen$n()v
 0001:000B8860       unused_func_200
 0001:000B8914       unused_func_201
 0001:000B8ACC       unused_func_202
 0001:000B8C0C       unused_func_203
 0001:000B8F48       person_command_to_text
 0001:000BA010       unused_func_204
 0001:000BA6E4       unused_func_205
 0001:000BAC50       unused_func_022
 0001:000BB3E0       unused_func_023
 0001:000BB474       find_next_ship_tnode
 0001:000BB534       process_ship
 0001:000BBA5C       send_ship_to
 0001:000BBC50       swap_wscreen
 0001:000BBC80       init_mech
 0001:000BBD98       mech_unkn_func_02
 0001:000BBDE0       mech_unkn_func_03
 0001:000BBE3C       mech_unkn_func_05
 0001:000BBEA4       process_mech_unknown1
 0001:000BBFC0       init_unkn1thing
 0001:000BC178       mech_unkn_func_09
 0001:000BCAA0       mech_unkn_func_08
 0001:000BCBCC       mech_unused_func_206
 0001:000BCC08       mech_unkn_func_11
 0001:000BCF84       mech_unkn_func_15
 0001:000BCFC4       mech_unused_func_208
 0001:000BD008       mech_unkn_func_12
 0001:000BDBD4       mech_unused_func_209
 0001:000BDC58       mech_unused_func_210
 0001:000BDCDC       mech_unused_func_211
 0001:000BDD60       mech_unkn_func_13
 0001:000BE620       mech_unkn_func_18
 0001:000BE6EC       mech_unkn_func_07
 0001:000BE72C       mech_unkn_func_14
 0001:000BE76C       load_mech_dat
 0001:000BE884       mech_unkn_func_19
 0001:000BEB44       mech_unused_func_212
 0001:000BEB78       mech_unused_func_213
 0001:000BEBC0       mech_unkn_func_20
 0001:000BED94       unused_func_214
 0001:000BEE30       init_mech_explode
 0001:000BEF90       process_unkn35
 0001:000BF050       count_fnavs
 0001:000BF14C       W?navi_onscreen_debug$n(l)v
 0001:000BF1FC       init_my_paths
 0001:000BF24C       return_single_path
 0001:000BF2A0       do_next_navigate_index
 0001:000BF384       use_nav_data
 0001:000BF520       unused_func_215
 0001:000BF5B8       set_xz_for_quad_unkn03
 0001:000BF8AC       set_xz_for_quad210
 0001:000BFB48       set_xz_for_quad123
 0001:000BFC10       set_xz_for_tri
 0001:000BFD00       build_navigate_path_to_person
 0001:000C0298       build_navigate_path_to_face
 0001:000C04C8       build_navigate_path_to_face_xz
 0001:000C06D0       build_navigate_path
 0001:000C0A94       build_fly_path
 0001:000C0C58       build_tank_path
 0001:000C0E44       remove_path
 0001:000C0ED4       unkn_path_func_001
 0001:000C1020       unused_func_216
 0001:000C1070       unused_func_217
 0001:000C1160       load_mad_console
 0001:000C18C0       __init_unkn1
 0001:000C191C       unused_func_218
 0001:000C1948       unused_func_219
 0001:000C1964       setup_mele
 0001:000C19E8       debug_trace_place
 0001:000C19F0       init_shoot_recoil
 0001:000C1AC8       weapon_sweep
 0001:000C1C0C       init_uzi
 0001:000C2078       init_long_range
 0001:000C24C4       init_minigun
 0001:000C2934       create_time_pod
 0001:000C2A00       create_stasis_pod
 0001:000C2AE0       init_time_gun
 0001:000C2C6C       init_stasis_gun
 0001:000C2E8C       init_c_iff
 0001:000C2FCC       angle_gun
 0001:000C303C       init_flamer
 0001:000C3324       create_electric_strand
 0001:000C33DC       create_growing_e_strand
 0001:000C35F4       create_another_strand
 0001:000C3A40       process_electric_strand
 0001:000C3B98       elec_hit_building
 0001:000C3E40       process_tasered_person
 0001:000C3F88       init_taser_person
 0001:000C3FA4       init_taser
 0001:000C422C       init_laser_elec
 0001:000C468C       unused_inlined_func_220
 0001:000C46D4       init_laser_q_sep
 0001:000C4720       init_laser_guided
 0001:000C48CC       init_laser_beam
 0001:000C4E2C       init_air_strike
 0001:000C4EE8       process_air_strike
 0001:000C509C       init_fire_weapon
 0001:000C5A78       init_razor_wire
 0001:000C5B30       finalise_razor_wire
 0001:000C5C24       update_razor_wire
 0001:000C5CCC       process_persuadertron
 0001:000C5FD4       init_mech_rocket
 0001:000C620C       process_vehicle_weapon
 0001:000C63AC       process_mech_weapon
 0001:000C65E0       process_mushroom
 0001:000C66CC       test_stuff
 0001:000C67EC       process_nuclear_bomb
 0001:000C6AB8       process_canister
 0001:000C6D4C       process_smoke_generator
 0001:000C6E5C       process_special_drift_smoke
 0001:000C6FA0       angle_between_points
 0001:000C6FB0       napalm_person
 0001:000C71CC       process_drift_smoke
 0001:000C7678       process_napalm_flame
 0001:000C7A80       process_flame1
 0001:000C7D00       process_blood
 0001:000C7D44       process_splash
 0001:000C7E1C       process_scale_effect
 0001:000C7F10       init_rocket
 0001:000C8218       init_v_rocket
 0001:000C84D0       init_grenade
 0001:000C867C       init_spark
 0001:000C87E4       process_spark
 0001:000C88A4       init_laser
 0001:000C8C60       init_laser_6shot
 0001:000C8D2C       process_laser
 0001:000C8D80       process_laser_guided
 0001:000C8F24       process_laser_unkn1
 0001:000C8F78       process_laser_elec
 0001:000C9050       process_laser_unkn28
 0001:000C9054       recalc_rocket_direction
 0001:000C9100       process_rocket
 0001:000C99C8       process_c_iff
 0001:000C9ADC       process_mine
 0001:000C9D60       process_grenade
 0001:000CA078       process_bang
 0001:000CAE78       find_and_time_travel
 0001:000CAF50       process_time_pod
 0001:000CB0C0       unused_func_221
 0001:000CB0E4       find_and_stasis
 0001:000CB2F8       process_stasis_pod
 0001:000CB490       screen_dark_curtain_down
 0001:000CB6C0       traffic_unused_func_222
 0001:000CB738       traffic_unkn_func_01
 0001:000CBCBC       load_outro_sprites
 0001:000CC004       string_width_med2_font
 0001:000CC058       unused_func_224
 0001:000CC900       init_outro
 0001:000CCD10       is_mission_active_in_city
 0001:000CCEE8       my_net_session_callback
 0001:000CCF00       is_unkn_current_player
 0001:000CCF28       net_unkn_func_29
 0001:000CD028       unused_func_225
 0001:000CD0AC       net_unkn_func_30
 0001:000CD2EC       net_unkn_func_31
 0001:000CD528       net_unkn_func_32
 0001:000CD7EC       net_unkn_func_33
 0001:000CE5A8       check_buy_sell_button
 0001:000CE7C8       font_height
 0001:000CE93C       update_flic_mods
 0001:000CEA50       init_next_blokey_flic
 0001:000CEE8C       draw_body_mods
 0001:000CF150       load_save_slot_names
 0001:000CF1E4       init_weapon_text
 0001:000CF3C4       load_netscan_data
 0001:000CF654       load_all_text
 0001:000CF6FC       load_city_txt
 0001:000CF84C       load_city_data
 0001:000CF8A0       init_agents
 0001:000CFA64       remove_agent
 0001:000CFBD8       add_agent
 0001:000CFD88       update_mission_time
 0001:000CFFB8       purple_mods_data_to_screen
 0001:000D0090       show_alert_box
 0001:000D01F8       find_closest_city
 0001:000D0270       reload_background
 0001:000D0380       user_read_value
 0001:000D051C       time_difference
 0001:000D0548       draw_weapon_slot
 0001:000D0600       show_unkn04_func_02
 0001:000D06F4       mouse_in_rect_adv
 0001:000D08DC       mouse_in_rect
 0001:000D0994       free_slot
 0001:000D0AA4       LbDrawSlantBox
 0001:000D0B9C       init_variables
 0001:000D0D14       srm_reset_research
 0001:000D0DE8       research_unkn_func_002
 0001:000D0E34       research_unkn_func_003
 0001:000D0E60       research_unkn_func_004
 0001:000D0F58       research_unkn_func_005
 0001:000D1604       research_unkn_func_006
 0001:000D1ED4       load_mail_text
 0001:000D1F28       queue_up_new_mail
 0001:000D1FB4       dequeue_mail
 0001:000D1FF4       activate_cities
 0001:000D23B4       activate_queued_mail
 0001:000D2540       delete_mail
 0001:000D25EC       weapon_flic_data_to_screen
 0001:000D265C       purple_unkn2_data_to_screen
 0001:000D26D4       blokey_flic_data_to_screen
 0001:000D278C       blokey_static_flic_data_to_screen
 0001:000D299C       SCANNER_data_to_screen
 0001:000D29A4       show_title_box
 0001:000D2A84       show_unkn38_box
 0001:000D2D2C       select_all_agents
 0001:000D2D3C       do_net_protocol_option
 0001:000D2E90       do_net_unkn40
 0001:000D2EA4       do_serial_speed_switch
 0001:000D2F18       change_panel_permutation
 0001:000D2FE4       change_trenchcoat_preference
 0001:000D3038       do_unkn10_CALIBRATE
 0001:000D3040       do_unkn10_SAVE
 0001:000D3078       do_unkn10_CONTROLS
 0001:000D30A4       alert_OK
 0001:000D30CC       do_net_SET2
 0001:000D3128       do_net_SET
 0001:000D3184       do_net_INITIATE
 0001:000D3274       do_net_groups_LOGON
 0001:000D3388       do_unkn8_EJECT
 0001:000D33B8       accept_mission
 0001:000D33E8       do_unkn1_CANCEL
 0001:000D3400       do_unkn2_ACCEPT
 0001:000D345C       do_unkn2_CANCEL
 0001:000D3480       do_sysmnu_button
 0001:000D348C       do_storage_NEW_MORTAL
 0001:000D36BC       load_game_slot
 0001:000D38B0       save_game_slot
 0001:000D396C       main_do_my_quit
 0001:000D3988       main_do_login_1
 0001:000D39A4       goto_savegame
 0001:000D3B3C       do_abort_2
 0001:000D3B5C       do_login_2
 0001:000D3E0C       main_do_map_editor
 0001:000D3E18       brief_do_netscan_enhance
 0001:000D3FF8       do_unkn11_CANCEL
 0001:000D4090       do_buy_equip
 0001:000D4FDC       sell_equipment
 0001:000D56D0       do_research_submit
 0001:000D5784       do_research_suspend
 0001:000D57B8       do_unkn12_WEAPONS_MODS
 0001:000D5870       load_credits_and_sound
 0001:000D5994       person_func_unknown_310
 0001:000D5AD0       fill_ail_sample_ids
 0001:000D5B10       verify_ail_sample_ids
 0001:000D5B60       create_sound_effect
 0001:000D5C2C       calc_pan
 0001:000D5CA0       snd_unused_func_230
 0001:000D5D1C       snd_unkn1_volume_all_samples
 0001:000D5D8C       monitor_all_samples
 0001:000D6134       snd_unkn3_find_stop_sample
 0001:000D61D0       play_dist_sample
 0001:000D6374       play_dist_ssample
 0001:000D6514       play_disk_sample
 0001:000D6548       play_dist_speech
 0001:000D6598       set_dist_volume
 0001:000D6650       FIRE_init
 0001:000D66A4       FIRE_get_flame
 0001:000D66E8       FIRE_give_flame
 0001:000D6738       FIRE_new
 0001:000DAAB8       FIRE_process_flame
 0001:000DC6A0       LbMemoryAlloc_
 0001:000DC728       LbMemoryAllocLow_
 0001:000DC7AC       LbMemoryCheck_
 0001:000DC8B8       LbMemoryFree_
 0001:000DC920       LbMemoryGrow_
 0001:000DC9EC       LbMemoryReset_
 0001:000DCA68       LbMemorySetup_
 0001:000DCD64       LbMemoryShrink_
 0001:000DCDE8       W?split_arena$n(pn$mem_arena$$ul)uc
 0001:000DCE64       W?delete_arena$n(pn$mem_arena$$)v
 0001:000DCEAC       W?compare$n(pn$mem_block$$pn$1$)i
 0001:000DCEB0       W?dos_alloc$n(ul)ul
 0001:000DCF00       W?dos_free$n(us)v
 0001:000DCF40       BAT_draw_char
 0001:000DCFF8       unused_func_231
 0001:000DD038       unused_func_232
 0001:000DD098       unused_func_233
 0001:000DD0F8       unused_func_234
 0001:000DD140       unused_func_235
 0001:000DD210       breakout_play_sub1
 0001:000DD620       breakout_play_sub2
 0001:000DD878       BAT_unknsub_28
 0001:000DD980       BAT_unknsub_29
 0001:000DD9E0       BAT_unknsub_30
 0001:000DDA40       BAT_unknsub_31
 0001:000DDA88       BAT_unknsub_32
 0001:000DDAB0       BAT_unknsub_33
 0001:000DDAE0       breakout_sub_DDAE0
 0001:000DDB64       BAT_unknsub_20
 0001:000DDCF8       BAT_unknsub_21
 0001:000DDF38       BAT_unknsub_22
 0001:000DE62C       BAT_unknsub_23
 0001:000DE688       BAT_unknsub_24
 0001:000DE6B4       BAT_unknsub_26
 0001:000DE7C0       BAT_unknsub_27
 0001:000DE8FC       BAT_play
 0001:000DF8D0       FileNameTransformSW
 0001:000DF9E4       FileOpenInclCD
 0001:000DFA80       W?heapmgr_init$n(pnucll)pn$HeapMgrHeader$$
 0001:000DFADC       W?heapmgr_add_item$n(pn$HeapMgrHeader$$l)pn$HeapMgrHandle$$
 0001:000DFBBC       W?heapmgr_make_newest$n(pn$HeapMgrHeader$$pn$HeapMgrHandle$$)v
 0001:000DFBF8       W?heapmgr_free_oldest$n(pn$HeapMgrHeader$$)l
 0001:000DFC2C       W?heapmgr_free_handle$n(pn$HeapMgrHeader$$pn$HeapMgrHandle$$)l
 0001:000DFCF8       W?heapmgr_defrag$n(pn$HeapMgrHeader$$)v
 0001:000DFD60       W?heapmgr_complete_defrag$n(pn$HeapMgrHeader$$)v
 0001:000DFDB0       W?find_free_handle$n(pn$HeapMgrHeader$$)pn$HeapMgrHandle$$
 0001:000DFDE0       setup_heap_manager
 0001:000E00A8       nullsub_10
 0001:000E00AC       sound_unused_func_0320
 0001:000E00E0       W?process_sound_heap$n()v
 0001:000E018C       W?stop_sample_using_heap$n(ulsuc)v
 0001:000E0218       W?play_sample_using_heap$n(ulsulululcucuc)pn$SampleInfo$$
 0001:000E0374       W?find_handle_for_new_sample$n(llluc)pn$HeapMgrHandle$$
 0001:000E03F4       W?parse_sound_file$n(lpnucpnlll)l
 0001:000E05F0       unused_func_309
 0001:000E06A4       process_things_unkn_sub2
 0001:000E0AC4       process_things_bang
 0001:000E0B9C       process_things_mines_explode
 0001:000E0C90       LbScreenSetup_
 0001:000E0CC0       LbScreenIsModeAvailable_
 0001:000E0D00       LbScreenSetGraphicsWindow_
 0001:000E0E30       LbSpriteReset_
 0001:000E0E74       LbSpriteResetAll_
 0001:000E0EBC       LbSpriteSetup_
 0001:000E0F00       LbSpriteSetupAll_
 0001:000E0F48       LbSpriteDrawScaled_
 0001:000E0FD0       memset_
 0001:000E0FE8       mem_putc_
 0001:000E0FFB       sprintf_
 0001:000E1030       joy_grip_init
 0001:000E11A8       joy_grip_shutdown
 0001:000E11BA       GrShutdown_1
 0001:000E123C       joy_func_067
 0001:000E13BB       GrInitialize_2
 0001:000E1424       GrGetClassMap_1
 0001:000E1443       GrGetMaxIndex_1
 0001:000E156D       GrInitialize_3
 0001:000E16DF       GrInitialize_4
 0001:000E1889       GrInitialize_5
 0001:000E1A18       GrInitialize_6
 0001:000E1C30       GrInitialize_7
 0001:000E1DCE       GrInitialize_8
 0001:000E1F66       GrInitialize_9
 0001:000E216C       joy_func_066
 0001:000E226C       joy_func_065
 0001:000E279F       GrRefresh_1
 0001:000E283B       GrGetClassMap_2
 0001:000E285A       GrGetValue_1
 0001:000E288A       GrGetValue_2
 0001:000E28B4       GrGetPackedValues_1
 0001:000E3200       joy_unused_func_251
 0001:000E3210       unused_off_E3210
 0001:000E3268       joy_unused_func_058
 0001:000E3648       joy_unused_func_059
 0001:000E368C       unused_off_E368C
 0001:000E36E4       joy_unused_func_057
 0001:000E3A78       joy_grip_unknsub_08
 0001:000E3A90       joy_func_063
 0001:000E3AD0       joy_unused_func_055
 0001:000E3B48       joy_unused_func_056
 0001:000E3BF8       joy_unused_func_054
 0001:000E3C6C       joy_unused_func_053
 0001:000E3CC0       joy_unused_func_052
 0001:000E3E08       unused_off_E3E08
 0001:000E3E28       joy_unused_func_049
 0001:000E3EE0       joy_unused_func_050
 0001:000E3F54       joy_unused_func_051
 0001:000E3FC8       joy_unused_func_044
 0001:000E4128       joy_unused_func_045
 0001:000E4188       joy_unused_func_046
 0001:000E41D3       GrInitialize_11
 0001:000E4220       joy_unused_func_047
 0001:000E4229       GrShutdown_2
 0001:000E4240       joy_unused_func_048
 0001:000E424D       GrRefresh_2
 0001:000E42E3       GrGetClassMap_3
 0001:000E4302       GrGetValue_3
 0001:000E432E       GrGetValue_4
 0001:000E4354       GrGetPackedValues_2
 0001:000E43C8       joy_func_049
 0001:000E44C8       joy_unused_func_060
 0001:000E4828       joy_unused_func_247
 0001:000E4840       joy_unused_func_248
 0001:000E484A       GrGetPackedValues_3
 0001:000E486C       joy_unused_func_249
 0001:000E4874       GrGetValue_5
 0001:000E4888       joy_unused_func_250
 0001:000E4890       GrGetValue_6
 0001:000E48A8       joy_func_251
 0001:000E4930       joy_unused_func_061
 0001:000E4954       joy_unused_func_062
 0001:000E49E7       atoi_
 0001:000E4A60       LbNetworkUpdate_
 0001:000E4A8C       LbNetworkSessionList_
 0001:000E4D9C       LbNetworkServiceList_
 0001:000E4DC8       LbNetworkServiceStart_
 0001:000E4ECC       LbNetworkExchange_
 0001:000E4F28       LbNetworkSessionStop_
 0001:000E4F7C       LbNetworkReset_
 0001:000E4FDC       LbNetworkSessionActive_
 0001:000E5014       LbNetworkShutDownListeners_
 0001:000E5034       LbNetworkOpenUpListeners_
 0001:000E5054       LbNetworkSessionCreate_
 0001:000E5184       LbNetworkSessionJoin_
 0001:000E5378       LbNetworkHostPlayerNumber_
 0001:000E53F4       LbNetworkPlayerNumber_
 0001:000E5430       LbNetworkPlayerName_
 0001:000E54C8       LbNetworkSetupIPXAddress_
 0001:000E54E0       LbNetworkSessionNumberPlayers_
 0001:000E551C       LbNetworkSend_
 0001:000E5540       LbNetworkReceive_
 0001:000E5564       LbNetworkMessageSend_
 0001:000E5588       LbNetworkMessageReceive_
 0001:000E55AC       LbNetworkSendNoWait_
 0001:000E55D0       LbNetworkReceiveNoWait_
 0001:000E55F4       LbNetworkInit_
 0001:000E5630       LbNetworkDial_
 0001:000E5674       LbNetworkAnswer_
 0001:000E56B0       LbNetworkHangUp_
 0001:000E56EC       LbNetworkReadConfig_
 0001:000E56F4       LbNetworkSetBaud_
 0001:000E5734       LbNetworkSetSessionCreateFunction_
 0001:000E5740       LbNetworkSetSessionJoinFunction_
 0001:000E574C       LbNetworkSetSessionExchangeFunction_
 0001:000E5758       LbNetworkSetSessionUnk2CFunction_
 0001:000E5764       LbNetworkSetSessionInitFunction_
 0001:000E5770       LbNetworkSetSessionDialFunction_
 0001:000E577C       LbNetworkSetSessionAnswerFunction_
 0001:000E5788       LbNetworkSetSessionHangUpFunction_
 0001:000E5794       LbNetworkSetTimeoutSec
 0001:000E57B0       net_unkn_func_12
 0001:000E5808       switch_endianness_short
 0001:000E581C       _cstart_
 0001:000E581E       aWatcomCC32RunT
 0001:000E5894       _do_cstart_
 0001:000E5AAB       __exit_
 0001:000E5AAD       __do_exit_with_msg__
 0001:000E5AE8       ___GETDSStart_
 0001:000E5AF3       ___GETDSEnd_
 0001:000E5B00       LbSpriteDraw_
 0001:000E66F0       LbSpriteDrawRemap_
 0001:000E73A0       LbSqrL
 0001:000E7430       LbDrawBox_
 0001:000E7514       LbDrawBoxCoords_
 0001:000E7590       LbDrawLine_
 0001:000E79D8       W?draw_b_line$n(lllluc)v
 0001:000E7D00       LbSpriteDrawOneColour_
 0001:000E882C       LbDrawPixel_
 0001:000E8861       LbDrawPixelClip_
 0001:000E88F0       LbFileExists_
 0001:000E8914       LbFilePosition_
 0001:000E8940       LbFileOpen_
 0001:000E8A1C       LbFileClose_
 0001:000E8A44       LbFileSeek_
 0001:000E8AB8       LbFileRead_
 0001:000E8AF0       LbFileWrite_
 0001:000E8B28       LbFileLength_
 0001:000E8B7C       LbFileFindFirst_
 0001:000E8BC0       LbFileFindNext_
 0001:000E8BF4       LbFileFindEnd_
 0001:000E8C08       LbFileRename_
 0001:000E8C38       LbFileDelete_
 0001:000E8C60       W?convert_find_info$n(pn$TbFileFind$$)v
 0001:000E8E00       LbMousePlace_
 0001:000E8F58       LbMouseRemove_
 0001:000E9034       LbMouseChangeSpriteOffset_
 0001:000E906C       LbMouseChangeSprite_
 0001:000E91F4       LbMouseChangeMoveRatio_
 0001:000E926C       LbMouseSetup_
 0001:000E9414       LbMouseReset_
 0001:000E9498       LbMouseSuspend_
 0001:000E94FC       LbMouseSetWindow_
 0001:000E9568       LbMouseSetPosition_
 0001:000E95F4       W?LbMouseUpdatePosition$n()l
 0001:000E9638       W?MouseHandler256$f(iii)v
 0001:000E99E4       W?adjust_point$n(pnlpnl)ul
 0001:000E9A88       W?mouse_setup_range$n()ul
 0001:000E9BA0       W?screen_place$n()l
 0001:000E9E58       W?screen_remove$n(ul)l
 0001:000EA01C       arctan
 0001:000EA32A       time_
 0001:000EA359       strrchr_
 0001:000EA373       toupper_
 0001:000EA390       strcmp_
 0001:000EA431       tolower_
 0001:000EA440       LbFileLengthRnc_
 0001:000EA50C       LbFileLoadAt_
 0001:000EA5AC       LbFileSaveAt_
 0001:000EA5F8       unused_func_237
 0001:000EA7D4       LbFileMakeFullPath_
 0001:000EA90C       LbFileCopy_
 0001:000EAA2C       W?compare$n(pnapnaulul)i
 0001:000EAAB0       LbPaletteFade_
 0001:000EACA8       LbPaletteStopOpenFade_
 0001:000EACBC       LbPaletteFindColour_
 0001:000EB088       unused_func_239
 0001:000EB170       set_smack_malloc_
 0001:000EB178       set_smack_free_
 0001:000EB180       play_smk_
 0001:000EB1B8       W?play_smk_direct$n(pnall)l
 0001:000EB388       W?play_smk_via_buffer$n(pnall)l
 0001:000EB4EC       RADMALLOC
 0001:000EB508       RADFREE
 0001:000EB518       W?copy_to_screen$n(pnucululul)v
 0001:000EB7C0       InitAudio_
 0001:000EBA90       W?prepare_SB16_volumes$n()v
 0001:000EBBC0       W?reset_SB16_volumes$n()v
 0001:000EBC50       W?cbCDCountdown$n(ul)v
 0001:000EBC90       GetCDCountdown_
 0001:000EBCA0       GetCDAble_
 0001:000EBCB0       W?CDTrackPlaying$n()us
 0001:000EBCD0       InitRedbook_
 0001:000EBD10       PlayCDTrack_
 0001:000EBE10       PlayCDChunk_
 0001:000EBE70       PlayCDFromTrack_
 0001:000EBEE0       PauseCD_
 0001:000EBF20       ResumeCD_
 0001:000EBF60       StopCD_
 0001:000EBFB0       NumCDTracks_
 0001:000EBFD0       CDTrackInfo_
 0001:000EC030       CDAudioStatus_
 0001:000EC050       SetCDVolume_
 0001:000EC080       GetCDVolume_
 0001:000EC090       W?ConvertCDTime$n($CDTime$$)ul
 0001:000EC0F0       W?ConvertDOSCDTime$n(ul)$CDTime$$
 0001:000EC1A0       IsCDPlaying_
 0001:000EC1D0       W?CDHeadPosition$n()$CDTime$$
 0001:000EC210       FreeCD_
 0001:000EC240       StopMusicIfActive_
 0001:000EC270       unused_func_305
 0001:000EC2A0       GetNumberOfSamples_
 0001:000EC2B0       GetSoundAble_
 0001:000EC2C0       GetMusicAble_
 0001:000EC2D0       GetSoundActive_
 0001:000EC2E0       GetMusicActive_
 0001:000EC2F0       GetSoundInstalled_
 0001:000EC300       GetMusicInstalled_
 0001:000EC310       GetStereoSound_
 0001:000EC320       GetNumberOfSongs_
 0001:000EC330       GetCurrentSoundMasterVolume_
 0001:000EC340       GetCurrentMusicMasterVolume_
 0001:000EC350       GetSoundDriver_
 0001:000EC360       GetMusicDriver_
 0001:000EC370       GetSelected95MidiDevice_
 0001:000EC380       GetFirstSampleInfoStructure_
 0001:000EC390       GetLastSampleInfoStructure_
 0001:000EC3A0       GetSongHandle_
 0001:000EC3B0       GetCDSpeed_
 0001:000EC3D0       LbKeyboardOpen_
 0001:000EC3DC       LbKeyboardClose_
 0001:000EC3E8       LbKeyboard_
 0001:000EC418       LbIKeyboardOpen__0
 0001:000EC460       LbIKeyboardClose__0
 0001:000EC488       LbDosKeyboard_
 0001:000EC4F4       W?KInt$f()v
 0001:000EC660       LoadSounds_
 0001:000EC910       W?format_sounds$n()v
 0001:000EC970       W?load_sound_bank$n(luc)uc
 0001:000ECB90       AllocateSoundBankMemory_
 0001:000ECE00       W?DeInitSoundBank$n()v
 0001:000ECE30       LoadMusic_
 0001:000ED050       W?format_music$n()v
 0001:000ED0B0       W?load_music_bank$n(luc)uc
 0001:000ED2B0       AllocateMusicBankMemory_
 0001:000ED4A0       FreeAudio_
 0001:000ED4F0       LbScreenSetupAnyMode_
 0001:000ED6EC       LbScreenClearGraphicsWindow_
 0001:000ED738       LbScreenClear_
 0001:000ED764       LbScreenReset_
 0001:000ED7B0       LbScreenLock_
 0001:000ED7BC       LbScreenUnlock_
 0001:000ED7C8       LbScreenSetDoubleBuffering_
 0001:000ED7E8       LbScreenSetWScreenInVideo_
 0001:000ED808       LbScreenFindVideoModes_
 0001:000ED8C0       LbScreenSwap_
 0001:000ED974       LbScreenSwapBoxClear_
 0001:000EDB44       LbScreenSwapClear_
 0001:000EDC48       LbScreenSwapBox_
 0001:000EDDD4       LbScreenDrawHVLineDirect_
 0001:000EE1C0       LbScreenWaitVbi_
 0001:000EE1D8       atol_
 0001:000EE245       __open_flags_
 0001:000EE316       __doopen_
 0001:000EE3DA       _fsopen_
 0001:000EE413       fopen_
 0001:000EE41D       close_file_
 0001:000EE485       freopen_
 0001:000EE4C7       fputc_
 0001:000EE56B       fclose_
 0001:000EE598       __shutdown_stream_
 0001:000EE5AD       __hex_
 0001:000EE5B9       __MkTmpFile_
 0001:000EE61E       __doclose_
 0001:000EE6B0       SetMusicMasterVolume_
 0001:000EE700       SetSoundMasterVolume_
 0001:000EE750       IsSamplePlaying_
 0001:000EE830       clock_
 0001:000EE840       LbPaletteGet_
 0001:000EE8A4       LbPaletteSet_
 0001:000EE910       StopAllSamples_
 0001:000EE980       SetMusicVolume
 0001:000EE9E0       initrandnext_
 0001:000EE9E6       rand_
 0001:000EEA0A       srand_
 0001:000EEA20       unused_func_242
 0001:000EEA48       LbDataLoad_
 0001:000EEB78       LbDataLoadAll_
 0001:000EEC34       LbDataFree_
 0001:000EEC68       LbDataFreeAll_
 0001:000EECA0       LbVesaGetGran_
 0001:000EEDA8       LbVesaSetMode_
 0001:000EEE04       LbVesaSetPage_
 0001:000EEE84       LbVesaGetInfo_
 0001:000EEF48       LbVesaIsModeAvailable_
 0001:000EEFCA       __null_int23_exit_
 0001:000EEFCB       exit_
 0001:000EEFE3       _exit_
 0001:000EF000       DangerMusicFadeTick
 0001:000EF150       DangerMusicFadeSwitch
 0001:000EF290       SetSampleTempo
 0001:000EF2E0       SetSampleTempoNormal
 0001:000EF340       ReleaseLoopedSample
 0001:000EF3B0       SetSamplePitch_
 0001:000EF460       LbDrawTriangle_
 0001:000EF4F0       LbTextSetWindow_
 0001:000EF52C       LbTextSetJustifyWindow_
 0001:000EF57C       LbTextSetClipWindow_
 0001:000EF6A4       LbTextStringWidth_
 0001:000EF77C       LbTextWordWidth_
 0001:000EF800       LbTextStringHeight_
 0001:000EF874       LbTextDraw_
 0001:000F00C8       W?put_down_sprites$n(pnapnalll)v
 0001:000F0340       cb_get_trigger_info
 0001:000F0400       StartMusic_
 0001:000F065F       _dos_getvect_
 0001:000F0691       _dos_setvect_
 0001:000F06BE       cget_string_
 0001:000F06E7       uncget_string_
 0001:000F06EB       vsscanf_
 0001:000F0712       sscanf_
 0001:000F0740       LbDate_
 0001:000F0780       LbTime_
 0001:000F07C0       LbTimerClock_
 0001:000F07E6       memmove_
 0001:000F0834       LbDrawHVLine_
 0001:000F0A20       SetSampleVolume_
 0001:000F0AB0       SetSamplePan_
 0001:000F0B38       int386_
 0001:000F0B55       _nfree_
 0001:000F0BD7       _nmalloc_
 0001:000F0CBA       _nexpand_
 0001:000F0CF2       __HeapManager_expand_
 0001:000F0EEA       byteswap_
 0001:000F0F10       med3_
 0001:000F0F68       qsort_
 0001:000F13A1       strncmp_
 0001:000F13CA       creat_
 0001:000F13D7       setmode_
 0001:000F1483       close_
 0001:000F14A3       open_
 0001:000F14C7       sopen_
 0001:000F16B0       __set_binary_
 0001:000F1720       StopSample_
 0001:000F1790       PlaySampleFromAddress_
 0001:000F19F0       __STOSB
 0001:000F1A27       __STOSD
 0001:000F1A93       __prtf_
 0001:000F1E32       getprintspecs_
 0001:000F1F70       evalflags_
 0001:000F1FCF       far_strlen_
 0001:000F1FF3       far_other_strlen_
 0001:000F2016       fmt4hex_
 0001:000F2074       FixedPoint_Format_
 0001:000F2169       float_format_
 0001:000F2170       formstring_
 0001:000F2659       zupstr_
 0001:000F2680       GrLink
 0001:000F2917       Gr__Link_1
 0001:000F2974       GrUnlink
 0001:000F29D6       _searchenv_
 0001:000F2ACA       __update_buffer_
 0001:000F2B0C       fseek_
 0001:000F2C08       ftell_
 0001:000F2C4A       fread_
 0001:000F2E25       GETVECT_
 0001:000F2E44       IsSpwVector_
 0001:000F2E87       FindSpwVector_
 0001:000F2EB6       CallDriver_
 0001:000F2FCC       SpwUnknown2
 0001:000F30A5       SpwUnknown3
 0001:000F317D       SpwUnknown4
 0001:000F3199       SpwUnknown5
 0001:000F31BC       SpwUnknown6
 0001:000F324F       SpwUnknown7
 0001:000F335A       SpwOpenDriver_
 0001:000F33F9       SpwCloseDriver_
 0001:000F3432       SpwOpenDevice_
 0001:000F3463       SpwCloseDevice_
 0001:000F34A1       SpwEnableDevice_
 0001:000F34D5       SpwDisableDevice_
 0001:000F3509       SpwGetForce_
 0001:000F353A       SpwGetButton_
 0001:000F356B       SpwSimpleGet_
 0001:000F36FD       SpwSimpleOpen_
 0001:000F38B9       SpwSimpleClose_
 0001:000F3904       segread_
 0001:000F392C       int386x_
 0001:000F3948       joy_func_081
 0001:000F3A6B       vfx1_unkn_func_13
 0001:000F3BB0       VFX1MouseIntA
 0001:000F3C84       VFX1MouseIntC
 0001:000F3D58       VFX1MouseIntE
 0001:000F3E18       VFX1MouseIntD
 0001:000F3F0C       vfx1_init
 0001:000F4598       vfx1_CleanUp2
 0001:000F45D8       vfx1_unkn_func_03
 0001:000F4730       vfx1_unkn_func_04
 0001:000F4784       vfx1_PutPalette
 0001:000F4820       vfx1_CleanUp
 0001:000F4860       VFX1MouseIntB
 0001:000F48C8       vfx1_freeDOS
 0001:000F48F0       vfx1_allocDOS
 0001:000F4958       vfx1_unkn_func_10
 0001:000F496C       vfx1_unkn_func_11
 0001:000F4980       vfx1_unkn_func_12
 0001:000F49C0       CallIPX_
 0001:000F4A38       CallRealModeInterrupt_
 0001:000F4A8C       setup_bullfrog_header_
 0001:000F4AE4       ipx_create_session_
 0001:000F4D88       ipx_join_session_
 0001:000F5310       ipx_session_list_
 0001:000F5520       ipx_update_
 0001:000F5650       ipx_log_on_new_players_
 0001:000F5728       ipx_add_new_player_
 0001:000F5830       ipx_send_packet_
 0001:000F590C       ipx_service_init
 0001:000F5988       ipx_shutdown
 0001:000F5AA8       ipx_get_packet_
 0001:000F5B4C       ipx_exchange_packets_
 0001:000F5E2C       ipx_get_players_packets_
 0001:000F624C       ipx_send_packet_to_all_
 0001:000F63E4       W?ipx_send_datagram_to_all$n(pnucluc)l
 0001:000F659C       ipx_backup_last_packet_
 0001:000F65EC       ipx_send_last_packet_
 0001:000F6710       ipx_send_packet_to_player_
 0001:000F6870       ipx_send_and_get_packet_
 0001:000F69D0       ipx_get_host_packet_
 0001:000F6B88       ipx_get_player_number_
 0001:000F6BA4       ipx_get_host_player_number_
 0001:000F6BB8       ipx_get_player_name_
 0001:000F6C1C       ipx_add_player_to_session_
 0001:000F6C44       ipx_store_players_details_
 0001:000F6C84       ipx_shutdown_listeners_
 0001:000F6C94       ipx_openup_listeners_
 0001:000F6CA4       ipx_stop_network_
 0001:000F6E48       clear_ipx_info_
 0001:000F6EA0       ipx_send_packet_to_player_wait_
 0001:000F6F6C       ipx_receive_packet_from_player_wait_
 0001:000F7028       W?backup_old_player_datagram$n(llpnucl)v
 0001:000F712C       W?send_old_player_datagram$n(l)v
 0001:000F7188       W?increment_players_datagram_packet_count$n(l)v
 0001:000F71F4       ipx_network_send_
 0001:000F78BC       ipx_network_receive_
 0001:000F7AA0       ipx_send_packet_to_player_nowait_
 0001:000F7BE4       ipx_receive_packet_from_player_nowait_
 0001:000F7CB4       is_header_valid_
 0001:000F7CFC       W?run_create_function$n()l
 0001:000F7D10       W?run_exchange_function$n()l
 0001:000F7D20       W?run_fld2C_function$n()l
 0001:000F7D30       W?run_join_function$n()l
 0001:000F7D40       netsvc6_service_init
 0001:000F7E18       netsvc6_shutdown
 0001:000F7E2C       netsvc6_create_session_
 0001:000F7F50       netsvc6_join_session_
 0001:000F81E4       netsvc6_session_list
 0001:000F84A0       netsvc6_update
 0001:000F8620       netsvc6_unkn_func_18
 0001:000F871C       netsvc6_unkn_func_17
 0001:000F8768       netsvc6_exchange_packets_
 0001:000F8E38       netsvc6_unkn_func_16
 0001:000F8F70       netsvc6_unused_unkn_func_12
 0001:000F8FE0       netsvc6_unkn_func_15
 0001:000F9210       netsvc6_unkn_func_13
 0001:000F9288       netsvc6_unkn_func_14
 0001:000F92BC       netsvc6_unkn_func_11
 0001:000F935C       __init_unkn2
 0001:000F93BE       LbCommInit_
 0001:000F95A0       LbCommSetBaud_
 0001:000F9605       LbCommDeInit_
 0001:000F9763       W?backup_serial_int_vectors$n(pn$TbSerialDev$$)v
 0001:000F9835       W?setup_serial_int_vectors$n(pn$TbSerialDev$$)v
 0001:000F99E0       W?init_com_port$n(pn$TbSerialDev$$)v
 0001:000F9B18       LbCommExchange_
 0001:000F9C48       LbCommStopExchange_
 0001:000F9C6F       read_char_
 0001:000F9CCA       write_char_
 0001:000F9CEA       W?write_char_no_buff$n(pn$TbSerialDev$$uc)v
 0001:000F9D31       W?lock_code_start$n()v
 0001:000F9D46       W?com_handler0$f()v
 0001:000F9D7C       W?com_handler1$f()v
 0001:000F9DB2       W?com_handler2$f()v
 0001:000F9DE8       W?com_handler3$f()v
 0001:000F9E1E       W?handle_com$n(pn$TbSerialDev$$)v
 0001:000F9ECF       W?lock_code_end$n()v
 0001:000F9EE4       W?SetBps$n(pn$TbSerialDev$$l)l
 0001:000F9FA1       W?SetDtr$n(pn$TbSerialDev$$uc)v
 0001:000FA00D       W?SetRts$n(pn$TbSerialDev$$uc)v
 0001:000FA079       W?read_a_line$n(pn$__iobuf$$pna)v
 0001:000FA0BC       LbModemReadConfig_
 0001:000FA1E9       LbModemInit_
 0001:000FA257       LbModemDial_
 0001:000FA32E       LbModemAnswer_
 0001:000FA3B9       LbModemHangUp_
 0001:000FA4A0       LbModemRingType_
 0001:000FA4E9       W?get_modem_response$n(pn$TbSerialDev$$)l
 0001:000FA672       send_modem_request
 0001:000FA7CC       W?send_string$n(pn$TbSerialDev$$pna)v
 0001:000FA839       W?AllocDosMem$n(ulpnus)pnv
 0001:000FA89F       W?run_exchange_func$n()l
 0001:000FA8F6       net_unkn_callback1
 0001:000FA945       net_unkn_func_02
 0001:000FA9C7       net_unkn_callback2
 0001:000FAA2D       net_unused_unkn_func_04
 0001:000FAA67       net_unused_unkn_func_05
 0001:000FAAA1       inbuf_pos_inc
 0001:000FAADB       handle_com_sub1
 0001:000FAB15       __CMain
 0001:000FAB64       __InitRtns
 0001:000FABAF       __FiniRtns
 0001:000FABFE       __null_FPE_rtn
 0001:000FABFF       __Init_Argv_
 0001:000FACC0       _SplitParms_
 0001:000FADD0       LbDrawBoxClip_
 0001:000FAEEC       LbDrawBoxNoClip_
 0001:000FAF94       access_
 0001:000FAFCF       tell_
 0001:000FAFE0       lseek_
 0001:000FB023       read_
 0001:000FB11E       write_
 0001:000FB2F3       filelength_
 0001:000FB330       _dos_findfirst_
 0001:000FB34D       _dos_findnext_
 0001:000FB369       _dos_findclose_
 0001:000FB36C       _dos_find_sub1
 0001:000FB38F       _dos_find_sub2
 0001:000FB3B2       rename_
 0001:000FB3E0       remove_
 0001:000FB3E5       __getctime_
 0001:000FB4A8       mktime_
 0001:000FB5FC       UnpackM1_
 0001:000FB799       read_long
 0001:000FB7A2       input_value
 0001:000FB7E5       input_bits
 0001:000FB868       make_huftable
 0001:000FB910       LbErrorLogSetup_
 0001:000FB9C4       LbErrorLogReset_
 0001:000FB9FC       LbErrorLog_
 0001:000FBA80       LbDirectoryChange__1
 0001:000FBAA8       LbDirectoryCreate_
 0001:000FBAD0       LbDirectoryCurrent_
 0001:000FBB60       LbDirectoryExists_
 0001:000FBBA8       LbDirectoryRemove_
 0001:000FBBD0       MSSLite_shutdown
 0001:000FBBF0       MSSLite_init
 0001:000FBC20       SMACKSOUNDUSEMSS
 0001:000FBCE0       MSSLOWSOUNDVOLPAN
 0001:000FBD50       MSSSMACKTIMERSETUP
 0001:000FBD90       MSSSMACKTIMERDONE
 0001:000FBE40       MSSSMACKTIMERREAD
 0001:000FBEB0       MSS_func_unkn_01
 0001:000FBEC0       MSSLOWSOUNDCLOSE
 0001:000FBF40       MSSLOWSOUNDPURGE
 0001:000FBF80       MSSLOWSOUNDOPEN
 0001:000FC140       doinit_
 0001:000FC1D0       MSSLOWSOUNDPLAYED
 0001:000FC210       MSSLOWSOUNDCHECK
 0001:000FC300       MSS_func_unkn_02
 0001:000FC340       SMACKWRAPCOPY
 0001:000FC3C0       SMACKWAIT
 0001:000FC4E0       SMACKSOUNDCHECK
 0001:000FC4F0       SMACKVOLUMEPAN
 0001:000FC570       SMACKSOUNDINTRACK
 0001:000FC5C0       SMACKTOBUFFERRECT
 0001:000FC840       SMACKGOTO
 0001:000FC870       SMACKGETTRACKDATA
 0001:000FC98C       SMACKCOLORREMAP
 0001:000FCCF0       SMACKCOLORTRANS
 0001:000FCD10       SMACKTOBUFFER
 0001:000FCF30       SMACKTOSCREEN
 0001:000FD490       PutWidths_
 0001:000FD4D0       SMACKNEXTFRAME
 0001:000FD680       timeframe_
 0001:000FD7A0       SMACKDOFRAME
 0001:000FD880       doskip_
 0001:000FD8F0       soundnext_
 0001:000FDB40       SMACKCLOSE
 0001:000FDC80       SMACKSOUNDONOFF
 0001:000FDE90       SMACKFRAMERATE
 0001:000FDEB0       SMACKSIMULATE
 0001:000FDEC0       SMACKOPEN
 0001:000FE6C0       GetFirstTrack_
 0001:000FE6F0       soundopen_
 0001:000FE970       setuptheframe_
 0001:000FECD0       gotoframe_
 0001:000FEF40       readframe_
 0001:000FEF80       blockread_
 0001:000FF230       backgroundload_
 0001:000FF340       smkmalloc_
 0001:000FF369       getenv_
 0001:000FF3D0       SoundProgressLog_
 0001:000FF3F0       InitSound_
 0001:000FFA90       DetermineSoundType_
 0001:000FFC60       InitMusic_
 0001:001004A0       fm_instrument_file_exists
 0001:001004C0       InitAllBullfrogSoundTimers_
 0001:001004F0       SetupBullfrogSoundTimer_
 0001:00100570       ReleaseBullfrogSoundTimer_
 0001:001005C0       StreamedSampleFinished_
 0001:001005E0       InitStreamedSound_
 0001:001006C0       FreeStreamedSound_
 0001:00100700       PlayStreamedSample_
 0001:00100A70       MonitorStreamedSoundTrack_
 0001:00100BA0       SetStreamedSampleVolume_
 0001:00100BF0       StopStreamedSample_
 0001:00100C80       SwitchOffStreamedSound_
 0001:00100E70       W?play_adpcm_streamed_sample$n(pnall)v
 0001:00100EF0       W?monitor_adpcm_sound_track$n()v
 0001:00100FA0       W?allocate_buffers$n()l
 0001:00101000       W?free_buffers$n()v
 0001:00101080       W?monitor_mixed_sound_track$n()v
 0001:00101210       W?mix_to_buffer$n(pnspnsulll)l
 0001:00101330       W?findfirstfile$n(pnapna)pna
 0001:001015B0       W?CDSpeedTest$n(pna)c
 0001:001016D0       AILDEBUG_start_
 0001:00101780       _TIME_callback
 0001:001017F0       TIME_write_
 0001:001018A0       _AIL_startup
 0001:00101A40       _AIL_shutdown
 0001:00101AE0       _AIL_set_preference
 0001:00101C00       _AIL_lock
 0001:00101C10       _AIL_unlock
 0001:00101C20       _AIL_get_real_vect
 0001:00101D30       _AIL_set_real_vect
 0001:00101DC0       _AIL_set_USE16_ISR
 0001:00101E60       _AIL_restore_USE16_ISR
 0001:00101EE0       _AIL_disable_interrupts
 0001:00101EF0       _AIL_restore_interrupts
 0001:00101F00       _AIL_call_driver
 0001:00102030       _AIL_delay
 0001:001020B0       _AIL_background
 0001:001020C0       _AIL_read_INI
 0001:00102490       _AIL_register_timer
 0001:001025A0       _AIL_set_timer_user
 0001:001026C0       _AIL_set_timer_period
 0001:00102750       _AIL_set_timer_frequency
 0001:001027E0       _AIL_set_timer_divisor
 0001:00102870       _AIL_interrupt_divisor
 0001:00102980       _AIL_start_timer
 0001:00102A00       _AIL_start_all_timers
 0001:00102A70       _AIL_stop_timer
 0001:00102AF0       _AIL_stop_all_timers
 0001:00102B60       _AIL_release_timer_handle
 0001:00102BE0       _AIL_release_all_timers
 0001:00102C50       _AIL_get_IO_environment
 0001:00102D60       _AIL_install_driver
 0001:00102E80       _AIL_uninstall_driver
 0001:00102F00       _AIL_install_DIG_INI
 0001:00103010       _AIL_install_DIG_driver_file
 0001:00103130       _AIL_uninstall_DIG_driver
 0001:001031B0       _AIL_allocate_sample_handle
 0001:001032C0       _AIL_allocate_file_sample
 0001:001033E0       _AIL_release_sample_handle
 0001:00103460       _AIL_init_sample
 0001:001034E0       _AIL_set_sample_file
 0001:00103600       _AIL_set_sample_address
 0001:001036A0       _AIL_set_sample_type
 0001:00103740       _AIL_start_sample
 0001:001037C0       _AIL_stop_sample
 0001:00103840       _AIL_resume_sample
 0001:001038C0       _AIL_end_sample
 0001:00103940       _AIL_set_sample_playback_rate
 0001:001039D0       _AIL_set_sample_volume
 0001:00103A60       _AIL_set_sample_pan
 0001:00103AF0       _AIL_set_sample_loop_count
 0001:00103B80       _AIL_sample_status
 0001:00103C90       _AIL_sample_playback_rate
 0001:00103DA0       _AIL_sample_volume
 0001:00103EB0       _AIL_sample_pan
 0001:00103FC0       _AIL_sample_loop_count
 0001:001040D0       _AIL_set_digital_master_volume
 0001:00104160       _AIL_digital_master_volume
 0001:00104270       _AIL_install_DIG_driver_image
 0001:00104390       _AIL_minimum_sample_buffer_size
 0001:001044B0       _AIL_sample_buffer_ready
 0001:001045C0       _AIL_load_sample_buffer
 0001:00104660       _AIL_set_sample_position
 0001:001046F0       _AIL_sample_position
 0001:00104800       _AIL_register_SOB_callback
 0001:00104920       _AIL_register_EOB_callback
 0001:00104A40       _AIL_register_EOS_callback
 0001:00104B60       _AIL_register_EOF_callback
 0001:00104C80       _AIL_set_sample_user_data
 0001:00104D20       _AIL_sample_user_data
 0001:00104E40       _AIL_active_sample_count
 0001:00104F50       _AIL_install_MDI_INI
 0001:00105060       _AIL_install_MDI_driver_file
 0001:00105180       _AIL_uninstall_MDI_driver
 0001:00105200       _AIL_allocate_sequence_handle
 0001:00105310       _AIL_release_sequence_handle
 0001:00105390       _AIL_init_sequence
 0001:001054B0       _AIL_start_sequence
 0001:00105530       _AIL_stop_sequence
 0001:001055B0       _AIL_resume_sequence
 0001:00105630       _AIL_end_sequence
 0001:001056B0       _AIL_set_sequence_tempo
 0001:00105750       _AIL_set_sequence_volume
 0001:001057F0       _AIL_set_sequence_loop_count
 0001:00105880       _AIL_sequence_status
 0001:00105990       _AIL_sequence_tempo
 0001:00105AA0       _AIL_sequence_volume
 0001:00105BB0       _AIL_sequence_loop_count
 0001:00105CC0       _AIL_set_XMIDI_master_volume
 0001:00105D50       _AIL_XMIDI_master_volume
 0001:00105E60       _AIL_install_MDI_driver_image
 0001:00105F80       _AIL_MDI_driver_type
 0001:00106090       _AIL_set_GTL_filename_prefix
 0001:00106110       _AIL_timbre_status
 0001:00106230       _AIL_install_timbre
 0001:00106350       _AIL_protect_timbre
 0001:001063F0       _AIL_unprotect_timbre
 0001:00106490       _AIL_active_sequence_count
 0001:001065A0       _AIL_controller_value
 0001:001066C0       _AIL_channel_notes
 0001:001067E0       _AIL_sequence_position
 0001:00106900       _AIL_branch_index
 0001:00106990       _AIL_register_prefix_callback
 0001:00106AB0       _AIL_register_trigger_callback
 0001:00106BD0       _AIL_register_sequence_callback
 0001:00106CF0       _AIL_register_beat_callback
 0001:00106E10       _AIL_register_event_callback
 0001:00106F30       _AIL_register_timbre_callback
 0001:00107050       _AIL_set_sequence_user_data
 0001:001070F0       _AIL_sequence_user_data
 0001:00107210       _AIL_register_ICA_array
 0001:001072A0       _AIL_lock_channel
 0001:001073B0       _AIL_release_channel
 0001:00107440       _AIL_map_sequence_channel
 0001:001074E0       _AIL_true_sequence_channel
 0001:00107600       _AIL_send_channel_voice_message
 0001:001076B0       _AIL_send_sysex_message
 0001:00107740       _AIL_create_wave_synthesizer
 0001:00107870       _AIL_destroy_wave_synthesizer
 0001:001078F0       AILDEBUG_end_
 0001:00107920       GetCDTrackLength_
 0001:00107930       GetCDTrackStartSector_
 0001:00107940       is_daudio_track_
 0001:00107950       W?mmssff_to_sector$n(ul)ul
 0001:001079C0       W?cd_mem_init$n()us
 0001:00107A00       W?cd_check$n()ul
 0001:00107A80       W?cd_getheadlocationinfo$n(us)us
 0001:00107B70       cd_getdevicestatus_
 0001:00107C60       W?cd_getaudiodiscinfo$n(us)us
 0001:00107D60       W?cd_getaudiotrackinfo$n(usus)us
 0001:00107E50       W?cd_getqchannelinfo$n(us)us
 0001:00107F40       W?mscdex_version$n()ul
 0001:00107FA0       W?cd_getaudiostatusinfo$n(us)us
 0001:00108090       W?cd_seek$n(usul)us
 0001:00108160       cd_play_
 0001:00108250       cd_stop_
 0001:00108310       cd_resume_
 0001:001083D0       cd_init_
 0001:00108670       GetCDTracks_
 0001:00108680       cd_start_da_play_
 0001:001086E0       W?report_cd_head_location$n()v
 0001:00108790       W?time_diff$n($dostime_t$$$1$)ul
 0001:00108820       GetCDFirst_
 0001:00108830       W?start_cd_track$n(uc)i
 0001:00108890       FreeCDAudio_
 0001:001088F0       SetCDAudioVolume_
 0001:00108A40       GetCDAudioVolume_
 0001:00108BB0       StopMusic_
 0001:00108C60       FreeMusic_
 0001:00108D10       FreeSound_
 0001:00108D80       LbExeReferenceNumber_
 0001:00108D90       LbMemoryCopy_
 0001:00108DC4       LbMemorySet_
 0001:00108DE7       __set_EDOM_
 0001:00108DEC       __set_errno_
 0001:00108DF8       __set_ERANGE_
 0001:00108DFF       __set_EINVAL_
 0001:00108E0F       __set_doserrno_
 0001:00108E1B       __allocfp_
 0001:00108EC1       __freefp_
 0001:00108EFA       __purgefp_
 0001:00108F18       __chktty_
 0001:00108F4A       __ioalloc_
 0001:00108FC1       __flush_
 0001:0010909A       getpid_
 0001:001090A0       __close_
 0001:001090D5       clock_value_
 0001:00109130       __clock_init_
 0001:0010913B       __clock_
 0001:00109170       W?cbfadesample$n(ul)v
 0001:001093F0       FadeSample_
 0001:00109540       StopAllSampleFadeTimers_
 0001:001095A0       W?cb_sample_queue_callback$n(pn$_SAMPLE$$)v
 0001:00109660       PlaySampleList_
 0001:00109790       StopSampleQueueList_
 0001:00109869       printf_
 0001:0010988B       gets_
 0001:00109934       cget_
 0001:0010993B       call_func2
 0001:00109943       __scnf_
 0001:00109B8A       get_opt_
 0001:00109C7F       scan_white_
 0001:00109CBE       scan_char_
 0001:00109D53       scan_string_
 0001:00109E76       report_scan_
 0001:00109ED4       makelist_
 0001:00109F17       scan_arb_
 0001:0010A011       scan_float_
 0001:0010A328       scan_int_
 0001:0010A518       radix_value_
 0001:0010A53F       cgetw_
 0001:0010A566       _dos_getdate_
 0001:0010A581       _dos_gettime_
 0001:0010A59C       __MemAllocator
 0001:0010A644       __MemFree
 0001:0010A74F       __unlink_
 0001:0010A7A0       __FreeDPMIBlocks_
 0001:0010A7FC       __ReAllocDPMIBlock_
 0001:0010A8FB       __LinkUpNewMHeap_
 0001:0010A96F       __LastFree_
 0001:0010A9BF       RationalAlloc_
 0001:0010AA90       __CreateNewNHeap_
 0001:0010AB40       __ExpandDGROUP_
 0001:0010AC8C       __AdjustAmount_
 0001:0010AD09       __nmemneed_
 0001:0010AD0C       __IOMode_
 0001:0010AD61       __SetIOMode_
 0001:0010AD76       isatty_
 0001:0010AD9D       _dosret0_
 0001:0010ADA4       _dosretax_
 0001:0010ADA8       __set_errno_dos_
 0001:0010AE19       _Alphabet
 0001:0010AE1A       a123456789abcde
 0001:0010AE3E       utoa_
 0001:0010AE88       itoa_
 0001:0010AEA3       W?_no_support_loaded$n()v
 0001:0010AEB5       _Alphabet_0
 0001:0010AEB6       a123456789abc_0
 0001:0010AEDA       ultoa_
 0001:0010AF24       ltoa_
 0001:0010AF3F       __get_errno_ptr_
 0001:0010AF45       __get_doserrno_ptr_
 0001:0010AF4B       getcwd_
 0001:0010AFD3       strlen_
 0001:0010AFEC       strcpy_
 0001:0010B00B       strcat_
 0001:0010B03E       fflush_
 0001:0010B04E       __qread_
 0001:0010B06D       fgetc_
 0001:0010B0F6       __filbuf_
 0001:0010B125       __fill_buffer_
 0001:0010B1D2       store_STK
 0001:0010B1DA       __CHK
 0001:0010B1EA       __GRO
 0001:0010B1ED       __STK
 0001:0010B20B       __STKOVERFLOW_
 0001:0010B21A       fprintf_
 0001:0010B23B       putch_
 0001:0010B24A       delay_
 0001:0010B250       __int386x_
 0001:0010B288       __int386x_sub1
 0001:0010B2AD       _DoINTR_
 0001:0010B2FA       _DoINTR_sub1
 0001:0010B62E       _stol_
 0001:0010B791       strtoul_
 0001:0010B79B       strtol_
 0001:0010B7A3       radix_value__0
 0001:0010B801       stricmp_
 0001:0010B848       strnicmp_
 0001:0010B8A0       net_unkn_func_350
 0001:0010C074       net_unkn_func_351
 0001:0010C0BC       net_unkn_func_352
 0001:0010C170       net_unkn_func_353
 0001:0010C3BC       net_unkn_func_354
 0001:0010C3D0       net_unused_func_310
 0001:0010C41C       send_exchange_info
 0001:0010C484       net_unkn_func_356
 0001:0010C4FC       net_unused_func_035
 0001:0010C528       net_unused_func_036
 0001:0010C618       unused_func_037
 0001:0010C650       wcpp_error_undfcnstr
 0001:0010C664       wcpp_error_undfmembr
 0001:0010C678       net_unkn_init_2
 0001:0010C69C       net_unkn_post_init_1
 0001:0010C9A6       net_unkn_sub_323
 0001:0010CD02       net_unkn_sub_324
 0001:0010CE3E       net_unkn_sub_325
 0001:0010CEA0       net_unkn_sub_326
 0001:0010CF02       net_unkn_sub_327
 0001:0010D2B8       net_unkn_sub_328
 0001:0010D447       net_unkn_sub_329
 0001:0010D50D       unkn_exchange_start
 0001:0010D55B       unkn_exchange
 0001:0010D756       net_unkn_post_init_2
 0001:0010D776       net_unkn_post_init_3
 0001:0010D796       net_unkn_sub_332
 0001:0010D7B6       net_unkn_unused_sub_333
 0001:0010D7D6       net_unkn_unused_sub_334
 0001:0010D7F6       net_unkn_sub_335
 0001:0010D8FC       net_unkn_func_339
 0001:0010DBD7       net_unkn_func_340
 0001:0010DC04       net_unkn_change_state
 0001:0010DC81       net_unused_sub_336
 0001:0010DCA1       net_unkn_func_337
 0001:0010DDF6       net_unkn_func_338
 0001:0010DE30       __wcpp_2_module_dtor__
 0001:0010DE8C       W?fs_state_table$n(pn$ro_dtreg$$)pn$__7a4u3RO_STATE$$
 0001:0010DE90       W?fs_point_object$n(pn$rw_dtreg$$ui)pnv
 0001:0010DE97       W?fs_init_traverse$n(pn$__1j2o3bSTAB_TRAVERSE$$pn$rw_dtreg$$)v
 0001:0010DE9C       W?init$n()v
 0001:0010DEA7       __wcpp_2_mod_register__
 0001:0010DEB7       memcpy_
 0001:0010DEDC       outp_
 0001:0010DEE6       inp_
 0001:0010DEEE       sti_
 0001:0010DEF0       cli_
 0001:0010DEF4       W?fun_state_table$n(pn$ro_dtreg$$)pn$__7a4u3RO_STATE$$
 0001:0010DEF8       W?fun_point_object$n(pn$rw_dtreg$$ui)pnv
 0001:0010DF05       W?fun_init_traverse$n(pn$__1j2o3bSTAB_TRAVERSE$$pn$rw_dtreg$$)v
 0001:0010DF0A       W?init$n()v_0
 0001:0010DF15       __wcpp_2_fun_register__
 0001:0010DF1F       stackavail_
 0001:0010DF28       __CommonInit_
 0001:0010DF92       __doserror_
 0001:0010DFA5       unlink_
 0001:0010DFC6       __leapyear_
 0001:0010E001       calc_yday_
 0001:0010E0E6       check_order_
 0001:0010E11A       __isindst_
 0001:0010E3DD       time_less_
 0001:0010E40D       __brktime_
 0001:0010E522       _gmtime_
 0001:0010E540       gmtime_
 0001:0010E54D       __CacheOSTZ_
 0001:0010E5A1       tryOSTimeZone_
 0001:0010E5B9       tzset_
 0001:0010E5C7       __parse_tz_
 0001:0010E5FE       parse_time_
 0001:0010E622       parse_offset_
 0001:0010E74B       parse_rule_
 0001:0010E920       LbLogSetup_
 0001:0010EA0C       LbLog_
 0001:0010ECB4       LbLogClose_
 0001:0010ED34       LbLogSetPrefix_
 0001:0010EDC8       LbLogDelete_
 0001:0010EE14       LbLogSuspend_
 0001:0010EE48       LbLogRestart_
 0001:0010EE7C       mem_putc__0
 0001:0010EE8F       vsprintf_
 0001:0010EEA4       chdir_
 0001:0010EEC5       mkdir_
 0001:0010EEE6       stat_
 0001:0010F071       at2mode_
 0001:0010F0E1       rmdir_
 0001:0010F110       DEFSMACKTIMERSETUP
 0001:0010F150       DEFSMACKTIMERDONE
 0001:0010F160       DEFSMACKTIMERREAD
 0001:0010F1B0       _DLL_read
 0001:0010F210       _MEM_use_malloc
 0001:0010F220       _MEM_use_free
 0001:0010F230       _MEM_alloc_lock
 0001:0010F260       _MEM_free_lock
 0001:0010F290       _MEM_alloc_DOS
 0001:0010F2E0       _MEM_free_DOS
 0001:0010F2F0       _VMM_lock_range
 0001:0010F360       _VMM_unlock_range
 0001:0010F3D0       _AIL_vmm_lock
 0001:0010F3F0       _AIL_vmm_unlock
 0001:0010F410       _DLL_size
 0001:0010F550       _DLL_load
 0001:0010FAC0       _FILE_error
 0001:0010FAD0       _FILE_size
 0001:0010FB20       _FILE_read
 0001:0010FBF0       _FILE_write
 0001:0010FC80       _FILE_append
 0001:0010FD10       _AIL_fopen
 0001:0010FD31       _AIL_fremove
 0001:0010FD49       _AIL_fcreate
 0001:0010FD69       _AIL_fread
 0001:0010FDB5       _AIL_fwrite
 0001:0010FE01       _AIL_fseekbegin
 0001:0010FE25       _AIL_fseekcur
 0001:0010FE2B       _AIL_fseekend
 0001:0010FE31       _AIL_fclose
 0001:0010FE3F       _IsRemote
 0001:0010FE5D       _radgetfiletime
 0001:0010FE78       _radsetfiletime
 0001:0010FEA0       AllocDOSmem_
 0001:0010FEE0       FreeDOSmem_
 0001:0010FF20       CreateSelector_
 0001:0010FF60       GetDOSseg_
 0001:0010FFB0       AWEGetTotalRAM_
 0001:00110000       AWEDefMemMap_
 0001:001100B0       AWEGetSFInfo_
 0001:00110180       AWEStreamSample_
 0001:00110230       AWELoadPreset_
 0001:001102E0       AWEFreeMem_
 0001:00110340       LoadAwe32Soundfont_
 0001:001105E0       FreeAwe32Soundfont_
 0001:00110663       flushall_
 0001:00110668       __flushall_
 0001:00110697       setbuf_
 0001:001106C0       open_adpcm_file_
 0001:001109E0       close_adpcm_file_
 0001:00110A10       get_adpcm_block_
 0001:00110A40       W?get_adpcm_mono_block$n(pnvpnv)l
 0001:00110BE0       W?get_adpcm_stereo_block$n(pnvpnv)l
 0001:00110E48       _AIL_API_lock
 0001:00110E55       _AIL_API_unlock
 0001:00110E62       _API_timer
 0001:00110F88       _set_PIT_divisor
 0001:00110FB8       _set_PIT_period
 0001:00110FEB       _program_timers
 0001:00111050       _AILA_startup
 0001:0011113E       _AILA_shutdown
 0001:00111179       _AIL_API_get_real_vect
 0001:001111A5       _AIL_API_set_real_vect
 0001:001111CC       _thunk_proc
 0001:00111221       _AIL_API_set_USE16_ISR
 0001:00111437       _AIL_API_restore_USE16_ISR
 0001:0011147C       _AIL_API_disable_interrupts
 0001:00111480       _AIL_API_restore_interrupts
 0001:00111495       _AIL_switch_stack
 0001:001114CB       _AIL_restore_stack
 0001:001114E7       _AIL_API_call_driver
 0001:001115C1       _AIL_API_delay
 0001:001115FE       _AIL_API_background
 0001:0011160A       _AIL_API_register_timer
 0001:00111651       _AIL_API_set_timer_user
 0001:00111679       _AIL_API_release_timer_handle
 0001:001116A0       _AIL_API_release_all_timers
 0001:001116C4       _AIL_API_start_timer
 0001:001116F4       _AIL_API_start_all_timers
 0001:00111718       _AIL_API_stop_timer
 0001:00111748       _AIL_API_stop_all_timers
 0001:0011176C       _AIL_API_set_timer_period
 0001:0011179C       _AIL_API_set_timer_frequency
 0001:001117CC       _AIL_API_set_timer_divisor
 0001:0011180E       _AIL_API_interrupt_divisor
 0001:0011181A       _AILA_VMM_lock
 0001:00111840       AIL_start_
 0001:001118D0       _AIL_driver_server
 0001:00111920       _ASC_val
 0001:001119E0       _AIL_API_read_INI
 0001:00111D20       _AIL_API_set_preference
 0001:00111D40       _AIL_API_install_driver
 0001:00111FE0       _AIL_API_uninstall_driver
 0001:00112090       _AIL_API_get_IO_environment
 0001:00112110       _AIL_API_startup
 0001:00112230       _AIL_API_shutdown
 0001:00112280       AIL_end_
 0001:00112307       _localtime_
 0001:00112358       localtime_
 0001:00112365       convDec_
 0001:00112398       _asctime_
 0001:00112485       _ctime_
 0001:0011249E       ctime_
 0001:001124A3       asctime_
 0001:001124B0       AILSS_start_
 0001:00112570       _SS_start_DIG_driver_playback
 0001:001125C0       _SS_stop_DIG_driver_playback
 0001:001125F0       _SS_build_amplitude_tables
 0001:00112910       _SS_serve
 0001:00112B30       _SS_configure_buffers
 0001:00112F70       _SS_attempt_DIG_detection
 0001:00113070       _SS_destroy_DIG_driver
 0001:00113110       _SS_construct_DIG_driver
 0001:00113710       _AIL_API_install_DIG_driver_file
 0001:001137C0       _AIL_API_install_DIG_driver_image
 0001:00113800       _AIL_API_install_DIG_INI
 0001:00113880       _AIL_API_uninstall_DIG_driver
 0001:00113890       _AIL_API_active_sample_count
 0001:001138C0       _AIL_API_allocate_sample_handle
 0001:00113930       _AIL_API_release_sample_handle
 0001:00113940       _AIL_API_init_sample
 0001:00113A10       _AIL_API_sample_status
 0001:00113A20       _AIL_API_set_sample_address
 0001:00113A50       _AIL_API_set_sample_type
 0001:00113A80       _AIL_API_sample_playback_rate
 0001:00113A90       _AIL_API_set_sample_playback_rate
 0001:00113AA0       _AIL_API_sample_volume
 0001:00113AB0       _AIL_API_set_sample_volume
 0001:00113AD0       _AIL_API_sample_pan
 0001:00113AE0       _AIL_API_set_sample_pan
 0001:00113B00       _AIL_API_sample_position
 0001:00113B20       _AIL_API_set_sample_position
 0001:00113B40       _AIL_API_sample_loop_count
 0001:00113B60       _AIL_API_set_sample_loop_count
 0001:00113B70       _AIL_API_start_sample
 0001:00113BC0       _AIL_API_stop_sample
 0001:00113BE0       _AIL_API_resume_sample
 0001:00113C10       _AIL_API_end_sample
 0001:00113C60       _AIL_API_register_SOB_callback
 0001:00113C80       _AIL_API_register_EOB_callback
 0001:00113CA0       _AIL_API_register_EOS_callback
 0001:00113CC0       _AIL_API_set_sample_user_data
 0001:00113CE0       _AIL_API_sample_user_data
 0001:00113D00       _AIL_API_set_digital_master_volume
 0001:00113D40       _AIL_API_digital_master_volume
 0001:00113D60       _AIL_API_minimum_sample_buffer_size
 0001:00113E00       _AIL_API_load_sample_buffer
 0001:00113E60       _AIL_API_sample_buffer_ready
 0001:00113EC0       AILSS_end_
 0001:00113F80       AILSFILE_start_
 0001:00113FB0       _AIL_VOC_block_len
 0001:00113FC0       _AIL_VOC_terminate
 0001:00113FF8       _AIL_process_VOC_block__switch
 0001:00114020       _AIL_process_VOC_block
 0001:001142A0       _AIL_VOC_EOS
 0001:001142B0       _AIL_process_WAV_image
 0001:00114390       _AIL_WAV_EOS
 0001:001143D0       _AIL_API_allocate_file_sample
 0001:00114500       _AIL_API_set_sample_file
 0001:001145E0       _AIL_API_register_EOF_callback
 0001:00114600       AILSFILE_end_
 0001:00114630       AILXMIDI_start_
 0001:00114750       _XMI_message_size
 0001:001147B0       _XMI_flush_buffer
 0001:00114800       _XMI_MIDI_message
 0001:001148A0       _XMI_sysex_message
 0001:001148F0       _XMI_read_VLN
 0001:00114920       _XMI_swap
 0001:00114960       _XMI_find_sequence
 0001:00114A30       _XMI_read_log
 0001:00114BF0       _XMI_write_log
 0001:00114DE0       _XMI_send_channel_voice_message
 0001:00115240       _XMI_flush_note_queue
 0001:001152D0       _XMI_flush_channel_notes
 0001:00115340       _XMI_refresh_channel
 0001:00115580       _XMI_init_sequence_state
 0001:00115640       _XMI_rewind_sequence
 0001:00115660       _XMI_update_volume
 0001:001156A0       _XMI_serve
 0001:00115D70       _XMI_attempt_MDI_detection
 0001:00115E40       _XMI_destroy_MDI_driver
 0001:00115EA0       _XMI_construct_MDI_driver
 0001:001164F0       _AIL_API_install_MDI_driver_file
 0001:001165A0       _AIL_API_install_MDI_driver_image
 0001:001165E0       _AIL_API_install_MDI_INI
 0001:00116660       _AIL_API_uninstall_MDI_driver
 0001:00116670       _AIL_API_MDI_driver_type
 0001:00116720       _AIL_API_set_GTL_filename_prefix
 0001:001167A0       _AIL_API_allocate_sequence_handle
 0001:00116820       _AIL_API_release_sequence_handle
 0001:00116840       _AIL_API_init_sequence
 0001:00116B70       _AIL_API_start_sequence
 0001:00116BA0       _AIL_API_stop_sequence
 0001:00116C60       _AIL_API_resume_sequence
 0001:00116CD0       _AIL_API_end_sequence
 0001:00116D10       _AIL_API_set_sequence_loop_count
 0001:00116D20       _AIL_API_set_sequence_tempo
 0001:00116D90       _AIL_API_set_sequence_volume
 0001:00116E20       _AIL_API_sequence_status
 0001:00116E30       _AIL_API_sequence_loop_count
 0001:00116E50       _AIL_API_sequence_tempo
 0001:00116E60       _AIL_API_sequence_volume
 0001:00116E70       _AIL_API_set_XMIDI_master_volume
 0001:00116EC0       _AIL_API_XMIDI_master_volume
 0001:00116ED0       _AIL_API_timbre_status
 0001:00116F10       _AIL_API_install_timbre
 0001:00116FE0       _AIL_API_protect_timbre
 0001:00117020       _AIL_API_unprotect_timbre
 0001:00117060       _AIL_API_active_sequence_count
 0001:00117090       _AIL_API_controller_value
 0001:001170C0       _AIL_API_channel_notes
 0001:00117100       _AIL_API_sequence_position
 0001:00117170       _AIL_API_branch_index
 0001:00117200       _AIL_API_register_prefix_callback
 0001:00117220       _AIL_API_register_trigger_callback
 0001:00117240       _AIL_API_register_sequence_callback
 0001:00117260       _AIL_API_register_beat_callback
 0001:00117280       _AIL_API_register_event_callback
 0001:001172A0       _AIL_API_register_timbre_callback
 0001:001172C0       _AIL_API_set_sequence_user_data
 0001:001172E0       _AIL_API_sequence_user_data
 0001:00117300       _AIL_API_register_ICA_array
 0001:00117310       _AIL_API_lock_channel
 0001:001174A0       _AIL_API_release_channel
 0001:001175C0       _AIL_API_map_sequence_channel
 0001:00117600       _AIL_API_true_sequence_channel
 0001:00117620       _AIL_API_send_channel_voice_message
 0001:001176D0       _AIL_API_send_sysex_message
 0001:00117720       AILXMIDI_end_
 0001:00117830       XDIG_set_pitch__arr
 0001:00117A30       AILXDIG_start_
 0001:00117A60       _XMI_write_log_2
 0001:00117C30       WVL_search_
 0001:00117C60       XDIG_set_volume_
 0001:00117CE0       XDIG_set_pitch_
 0001:00117DF0       _XDIG_TIMB_trap
 0001:00117E20       _XDIG_MIDI_trap
 0001:00118240       _AIL_API_create_wave_synthesizer
 0001:001183C0       _AIL_API_destroy_wave_synthesizer
 0001:00118430       AILXDIG_end_
 0001:00118460       W?EAL_init_realmode_mem$n()us
 0001:001184D0       W?EAL_alloc_dos_mem$n(us)us
 0001:00118510       W?EAL_free_dos_mem$n(us)us
 0001:00118544       __InitFiles_
 0001:001185BB       __full_io_exit_
 0001:001185C7       fcloseall_
 0001:001185CC       docloseall_
 0001:00118624       __qwrite_
 0001:00118698       intdos_
 0001:001186E6       file_putc_
 0001:001186F7       __fprtf_
 0001:00118776       __FDFS
 0001:001187C2       _heapenable_
 0001:001187D2       sbrk_
 0001:0011889A       __brk_
 0001:00118965       __exit_with_msg_
 0001:0011896A       __wcpp_2_fatal_runtime_error___0
 0001:00118987       strncpy_
 0001:001189AC       getche_
 0001:001189C9       __delay_init_
 0001:001189FB       __delay_
 0001:00118A80       net_int_unkn1_handler
 0001:0011AE70       net_int_unkn2_handler
 0001:0011B23A       getch_data_waiting
 0001:0011B251       getch_
 0001:0011B4BC       __wcpp_2_fatal_runtime_error__
 0001:0011B4DC       W?nextDtorPosn$n(pn$__1j2o3bSTAB_TRAVERSE$$)pn$__7a4u3RO_STATE$$
 0001:0011B526       W?dtorComponent$n(pn$__iaap9DTOR_CMD$$uipn$rw_dtreg$$ui)v
 0001:0011B570       W?destruct_traverse$n(uipn$rw_dtreg$$i)v
 0001:0011B6A0       __wcpp_2_destruct_internal__
 0001:0011B6AA       __wcpp_2_destruct_all__
 0001:0011B6AC       __wcpp_2_destruct__
 0001:0011B6BE       __wcpp_2_destruct_after_all__
 0001:0011B6C0       __wcpp_2_destruct_after__
 0001:0011B6D0       __wcpp_2_base_register__
 0001:0011B6E9       __wcpp_2_base_deregister__
 0001:0011B6F6       __int23_handler_
 0001:0011B78B       __int_ctrl_break_handler_
 0001:0011B803       __DPMI_hosted_
 0001:0011B897       __restore_int23_
 0001:0011BA48       __restore_int_
 0001:0011BA4D       __restore_int_ctrl_break_
 0001:0011BA85       __grab_int23_
 0001:0011BBA0       __grab_int_ctrl_break_
 0001:0011BCBB       fprtf_
 0001:0011BCC0       strpbrk_
 0001:0011BD0A       fstat_
 0001:0011BE2C       _d2ttime_
 0001:0011BE92       strchr_
 0001:0011BEA6       __setenvp_
 0001:0011BF7A       _dos_read_
 0001:0011BFA4       _dos_write_
 0001:0011BFAB       setvbuf_
 0001:0011C012       fgets_
 0001:0011C07C       func_array001
 0001:0011C27C       func_array002
 0001:0011C67C       _DC_0
 0001:0011C68D       _DC_1
 0001:0011C699       _DC_16
 0001:0011C6B8       _DC_17
 0001:0011C6CC       _DC_18
 0001:0011C6EB       _DC_19
 0001:0011C6FF       _DC_24
 0001:0011C71C       _DC_25
 0001:0011C72E       _DC_26
 0001:0011C74B       _DC_27
 0001:0011C75D       _DC_32
 0001:0011C771       _DC_33
 0001:0011C780       _DC_36
 0001:0011C796       _DC_37
 0001:0011C7A7       _DC_48
 0001:0011C7C8       _DC_49
 0001:0011C7DE       _DC_50
 0001:0011C7FF       _DC_51
 0001:0011C815       _DC_52
 0001:0011C83A       _DC_53
 0001:0011C854       _DC_54
 0001:0011C879       _DC_55
 0001:0011C893       _DC_56
 0001:0011C8B6       _DC_57
 0001:0011C8CE       _DC_58
 0001:0011C8F1       _DC_59
 0001:0011C909       _DC_60
 0001:0011C930       _DC_61
 0001:0011C94C       _DC_62
 0001:0011C973       _DC_63
 0001:0011C98F       _DC_64
 0001:0011C9BC       _DC_65
 0001:0011C9E4       _DC_80
 0001:0011CA3D       _DC_81
 0001:0011CA8B       _DC_90
 0001:0011CAE4       _DC_83
 0001:0011CB32       _DC_88
 0001:0011CB89       _DC_89
 0001:0011CBD5       _DC_90a
 0001:0011CC2C       _DC_91
 0001:0011CC78       _DC_96
 0001:0011CCA8       _DC_97
 0001:0011CCD3       _DC_100
 0001:0011CD05       _DC_101
 0001:0011CD32       _DC_114
 0001:0011CD8D       _DC_113
 0001:0011CDDD       _DC_118
 0001:0011CE38       _DC_115
 0001:0011CE88       _DC_116
 0001:0011CEE7       _DC_117
 0001:0011CF3B       _DC_119
 0001:0011CF9A       _DC_122
 0001:0011CFEE       _DC_120
 0001:0011D04B       _DC_121
 0001:0011D09D       _DC_123
 0001:0011D0FA       _DC_126
 0001:0011D14C       _DC_124
 0001:0011D1AD       _DC_125
 0001:0011D203       _DC_127
 0001:0011D264       _DC_128
 0001:0011D2BA       _M_0
 0001:0011D2DE       _M_1
 0001:0011D305       _M_3
 0001:0011D33D       _M_7
 0001:0011D375       _M_8
 0001:0011D39C       _M_9
 0001:0011D3C6       _M_11
 0001:0011D400       _M_15
 0001:0011D43A       _M_16
 0001:0011D459       _M_17
 0001:0011D47B       _M_19
 0001:0011D4A8       _M_23
 0001:0011D4D5       _M_24
 0001:0011D4F7       _M_25
 0001:0011D51C       _M_27
 0001:0011D54B       _M_31
 0001:0011D57A       _M_32
 0001:0011D5A9       _M_33
 0001:0011D5DB       _M_35
 0001:0011D621       _M_39
 0001:0011D667       _M_40
 0001:0011D69C       _M_41
 0001:0011D6D4       _M_43
 0001:0011D71C       _M_47
 0001:0011D764       _M_48
 0001:0011D78E       _M_49
 0001:0011D7BB       _M_51
 0001:0011D7F6       _M_55
 0001:0011D831       _M_56
 0001:0011D861       _M_57
 0001:0011D894       _M_58
 0001:0011D8D1       _M_63
 0001:0011D90E       _M_64
 0001:0011D92A       _M_65
 0001:0011D950       _M_66
 0001:0011D97A       _M_67
 0001:0011D9A5       _M_70
 0001:0011D9CF       _M_71
 0001:0011D9FA       _M_72
 0001:0011DA27       _M_73
 0001:0011DA63       _M_74
 0001:0011DAA9       _M_75
 0001:0011DAF3       _M_78
 0001:0011DB39       _M_79
 0001:0011DB83       _M_88
 0001:0011DBAB       _M_89
 0001:0011DBE2       _M_90
 0001:0011DC1D       _M_91
 0001:0011DC5C       _M_94
 0001:0011DC97       _M_95
 0001:0011DCD6       _M_96
 0001:0011DCFD       _M_97
 0001:0011DD2E       _M_98
 0001:0011DD66       _M_99
 0001:0011DD9F       _M_102
 0001:0011DDD7       _M_103
 0001:0011DE10       _M_104
 0001:0011DE4B       _M_105
 0001:0011DE95       _M_106
 0001:0011DEE9       _M_107
 0001:0011DF41       _M_111
 0001:0011DF95       _M_112
 0001:0011DFED       _M_120
 0001:0011E023       _M_121
 0001:0011E068       _M_122
 0001:0011E0B1       _M_123
 0001:0011E0FE       _M_126
 0001:0011E147       _M_127
 0001:0011E194       _M_128
 0001:0011E1B8       _M_129
 0001:0011E1DF       _M_131
 0001:0011E21B       _M_135
 0001:0011E257       _M_136
 0001:0011E27E       _M_137
 0001:0011E2A8       _M_139
 0001:0011E2E6       _M_143
 0001:0011E324       _M_144
 0001:0011E343       _M_145
 0001:0011E365       _M_147
 0001:0011E396       _M_151
 0001:0011E3C7       _M_152
 0001:0011E3E9       _M_153
 0001:0011E40E       _M_155
 0001:0011E441       _M_159
 0001:0011E474       _M_160
 0001:0011E4A3       _M_161
 0001:0011E4D5       _M_163
 0001:0011E51F       _M_167
 0001:0011E569       _M_168
 0001:0011E59E       _M_169
 0001:0011E5D6       _M_171
 0001:0011E622       _M_175
 0001:0011E66E       _M_176
 0001:0011E698       _M_177
 0001:0011E6C5       _M_179
 0001:0011E704       _M_183
 0001:0011E743       _M_184
 0001:0011E773       _M_185
 0001:0011E7A6       _M_187
 0001:0011E7E7       _M_191
 0001:0011E828       _M_192
 0001:0011E844       _M_193
 0001:0011E86A       _M_194
 0001:0011E894       _M_195
 0001:0011E8C3       _M_198
 0001:0011E8ED       _M_199
 0001:0011E91C       _M_200
 0001:0011E949       _M_201
 0001:0011E985       _M_202
 0001:0011E9CB       _M_203
 0001:0011EA14       _M_206
 0001:0011EA5A       _M_207
 0001:0011EAA3       _M_216
 0001:0011EACB       _M_217
 0001:0011EB02       _M_218
 0001:0011EB3D       _M_219
 0001:0011EB7B       _M_222
 0001:0011EBB6       _M_223
 0001:0011EBF4       _M_224
 0001:0011EC1B       _M_225
 0001:0011EC4C       _M_226
 0001:0011EC84       _M_227
 0001:0011ECC1       _M_230
 0001:0011ECF9       _M_231
 0001:0011ED36       _M_232
 0001:0011ED71       _M_233
 0001:0011EDBB       _M_234
 0001:0011EE0F       _M_235
 0001:0011EE66       _M_238
 0001:0011EEBA       _M_239
 0001:0011EF11       _M_248
 0001:0011EF47       _M_249
 0001:0011EF8C       _M_250
 0001:0011EFD5       _M_251
 0001:0011F021       _M_254
 0001:0011F06A       _M_255
 0001:0011F0B6       _AILSSA_merge
 0001:0011F2DF       _AILSSA_DMA_copy
 0001:0011F372       _AILSSA_flush_buffer
 0001:0011F39E       _AILSSA_VMM_lock
 0001:0011F3CD       __EnterWVIDEO_
 0001:0011F748       _chain_intr_
 0001:0011F764       __wcpp_2_stab_entry__
 0001:0011F792       __wcpp_2_stab_trav_init__
 0001:0011F7B3       __wcpp_2_stab_trav_comp__
 0001:0011F7B8       __wcpp_2_stab_trav_next__
 0001:0011F83D       __wcpp_2_stab_trav_move__
 0001:0011F8D0       W?callTerminate$n(pn$thread_ctl$$)v
 0001:0011F8E7       __wcpp_2_corrupted_stack__
 0001:0011F8F8       W?typesigIndex$n(pn$dispatch_exc$$uipnpn$rt_type_sig$$)ui
 0001:0011F994       W?dispatchableFnExc$n(pn$dispatch_exc$$pn$__iaap9DTOR_CMD$$)i
 0001:0011F9BB       W?fneDispatch$n(pn$dispatch_exc$$)v
 0001:0011F9D1       W?dispatchableCatch$n(pn$dispatch_exc$$pn$__iaap9DTOR_CMD$$)i
 0001:0011F9F7       W?throwCnvSig$n(pn$dispatch_exc$$)pn$rt_type_sig$$
 0001:0011FA05       W?excToBePopped$n(pn$thread_ctl$$)i
 0001:0011FAA8       W?catchDispatch$n(pn$dispatch_exc$$)v
 0001:0011FBE6       W?catchDone$n(pn$thread_ctl$$pn$active_exc$$)v
 0001:0011FC23       __wcpp_2_catch_done__
 0001:0011FC44       W?unwindExc$n(pn$dispatch_exc$$)v
 0001:0011FC69       W?unwindStack$n(pn$dispatch_exc$$)v
 0001:0011FCBF       W?dispatchable$n(pn$dispatch_exc$$pn$rw_dtreg$$)$$TE$$
 0001:0011FDC0       W?getActiveExc$n(pn$thread_ctl$$)pn$active_exc$$
 0001:0011FE44       W?dispatch_init$n(pn$dispatch_exc$$pn$throw_ro$$i)v
 0001:0011FE7D       __wcpp_2_dispatchable__
 0001:0011FED6       __wcpp_2_save_exc__
 0001:0011FF54       __wcpp_2_dispatch__
 0001:00120005       W?processThrow$n(pnvpn$throw_ro$$i)v
 0001:0012004C       __wcpp_2_rethrow__
 0001:0012005C       __wcpp_2_throw__
 0001:00120066       __wcpp_2_throw_zero__
 0001:0012006E       W?longjmpExcPop$n(pn$dispatch_exc$$pn$rw_dtreg$$)v
 0001:001200B9       W?longjmpDtoring$n(pfv)v
 0001:00120159       W?longjmpInit$n()v
 0001:00120164       __wcpp_2_dtor_array__
 0001:00120191       __sigabort_
 0001:0012019B       __sigfpe_handler_
 0001:001201D0       signal_
 0001:00120285       raise_
 0001:00120347       __setbits_
 0001:00120388       __wcpp_2_bit_test__
 0001:001203A8       __wcpp_2_call_terminate__
 0001:001203B0       W?catBaseSig$n(pn$rt_type_sig$$)pn$1$
 0001:001203B9       __wcpp_2_ts_equiv__
 0001:00120412       _setjmp_
 0001:00120447       longjmp_
 0001:001204CC       __wcpp_2_alloc_exc__
 0001:00120607       __wcpp_2_free_exc__
 0001:00120634       __wcpp_2_pop_exc__
 0001:00120643       __wcpp_2_push_exc__
 0001:00120650       default_handler_
 0001:00120654       W?arr_state_table$n(pn$ro_dtreg$$)pn$__7a4u3RO_STATE$$
 0001:00120658       W?arr_point_object$n(pn$rw_dtreg$$ui)pnv
 0001:00120671       W?arr_init_traverse$n(pn$__1j2o3bSTAB_TRAVERSE$$pn$rw_dtreg$$)v
 0001:00120676       W?init$n()v_1
 0001:00120681       __wcpp_2_arr_register__
 0001:001206B1       abort_
 0001:001206B7       __terminate_
 0001:001206C9       __grab_fpe_
 0001:001206D0       W?terminate$n()v
 0001:0012071C       W?unexpected$n()v
 0001:00120774       __wcpp_2_ts_size__
 0001:001207B5       __GrabFP87_
 0001:001207E6       __Init_FPE_handler_
 0001:00120843       __Fini_FPE_handler_
 0001:001208A0       __Enable_FPE_
 0001:001208B5       __FPEHandler_
 0001:001208C2       __FPE2Handler_
 0001:001208E0       __FPE2Handler_pt2
 0001:001209C8       __FPEHandler_sub1
 0001:00120A55       __FPEHandler_sub2
 0001:00120AA7       __FPEHandler_sub3
 0001:00120ACD       __FPEHandler_sub2_sub
 0001:00120AF2       __FPEHandler_subx_sub
 0001:00120B00       __Phar_hook_init_
 0001:00120BC3       __Phar_hook_fini_
 0001:00120BF0       __DOS4G_hook_init_
 0001:00120C1D       __DOS4G_hook_fini_
 0001:00120C36       __Ergo_hook_init_
 0001:00120C74       __Ergo_hook_fini_
 0001:00120C8E       __Intel_hook_init_
 0001:00120CE5       __Intel_hook_fini__0
 0001:00120CE6       __Intel_hook_fini_
 0001:00120CE8       __save_8087_
 0001:00120CED       __rest_8087_
 0001:00120CF1       __init_8087_
 0001:00120D22       _fpreset_
 0001:00120D2C       __chk8087_
 0001:00120D76       _do_nothing_
 0001:00120D78       __init_80x87
 0001:00120DA0       trig_
 0001:001234DB       render05_loc03
 0001:00127D43       setup_vecs_
 0001:00127DAF       poly_line_
 0001:001281CC       prop_text
 0001:00128380       draw_gpoly_
 0001:0012D830       LbSpriteDraw_1
 0001:00133828       LbSpriteDraw_2
 0001:00135190       DrawAlphaSpriteUsingScalingData_
 0001:00136A08       SetAlphaScalingData_
 0001:00136D20       LbSpriteDrawUsingScalingData_
 0001:00138598       LbSpriteSetScalingData_
 0001:001388AC       LbDrawTriangleFilled_
 0001:00139100       _SmackInternal001
 0001:001391A0       _SmackInternal002
 0001:00139490       _SmackInternal003
 0001:00139500       _SmackInternal004
 0001:00139590       _SmackGetSizeTables
 0001:001395A0       _SmackDoTables
 0001:00139820       _SmackInternal007_sub1
 0001:001398E0       _SmackInternal005
 0001:00139910       _SmackInternal006
 0001:00139940       _SmackInternal007
 0001:00139CA0       _SmackInternal008
 0001:0013A4B0       _SmackInternal009
 0001:0013A660       _SmackInternalSwitch1_case000
 0001:0013A66C       _SmackInternalSwitch1_case001
 0001:0013A678       _SmackInternalSwitch1_case002
 0001:0013A684       _SmackInternalSwitch1_case003
 0001:0013A690       _SmackInternalSwitch1_case004
 0001:0013A6A0       _SmackInternalSwitch1_case005
 0001:0013A6B0       _SmackInternalSwitch1_case006
 0001:0013A6C0       _SmackInternalSwitch1_case007
 0001:0013A6D0       _SmackInternalSwitch1_case008
 0001:0013A6DC       _SmackInternalSwitch1_case009
 0001:0013A6E8       _SmackInternalSwitch1_case010
 0001:0013A6F4       _SmackInternalSwitch1_case011
 0001:0013A700       _SmackInternalSwitch1_case012
 0001:0013A710       _SmackInternalSwitch1_case013
 0001:0013A720       _SmackInternalSwitch1_case014
 0001:0013A730       _SmackInternalSwitch1_case015
 0001:0013A740       _SmackInternalSwitch1_case016
 0001:0013A74C       _SmackInternalSwitch1_case017
 0001:0013A758       _SmackInternalSwitch1_case018
 0001:0013A768       _SmackInternalSwitch1_case019
 0001:0013A774       _SmackInternalSwitch1_case020
 0001:0013A784       _SmackInternalSwitch1_case021
 0001:0013A794       _SmackInternalSwitch1_case022
 0001:0013A7A4       _SmackInternalSwitch1_case023
 0001:0013A7B4       _SmackInternalSwitch1_case024
 0001:0013A7C0       _SmackInternalSwitch1_case025
 0001:0013A7CC       _SmackInternalSwitch1_case026
 0001:0013A7D8       _SmackInternalSwitch1_case027
 0001:0013A7E4       _SmackInternalSwitch1_case028
 0001:0013A7F4       _SmackInternalSwitch1_case029
 0001:0013A804       _SmackInternalSwitch1_case030
 0001:0013A814       _SmackInternalSwitch1_case031
 0001:0013A824       _SmackInternalSwitch1_case032
 0001:0013A830       _Smacksub_13A830
 0001:0013A840       _Smacksub_13A840
 0001:0013A84C       _Smacksub_13A84C
 0001:0013A858       _Smacksub_13A858
 0001:0013A868       _Smacksub_13A868
 0001:0013A878       _Smacksub_13A878
 0001:0013A888       _Smacksub_13A888
 0001:0013A898       _Smacksub_13A898
 0001:0013A8A4       _Smacksub_13A8A4
 0001:0013A8B0       _Smacksub_13A8B0
 0001:0013A8BC       _Smacksub_13A8BC
 0001:0013A8C8       _Smacksub_13A8C8
 0001:0013A8D8       _Smacksub_13A8D8
 0001:0013A8E8       _Smacksub_13A8E8
 0001:0013A8F8       _Smacksub_13A8F8
 0001:0013A908       _SmackInternalSwitch1_case048
 0001:0013A914       _Smacksub_13A914
 0001:0013A920       _Smacksub_13A920
 0001:0013A92C       _Smacksub_13A92C
 0001:0013A938       _Smacksub_13A938
 0001:0013A948       _Smacksub_13A948
 0001:0013A958       _Smacksub_13A958
 0001:0013A968       _Smacksub_13A968
 0001:0013A978       _Smacksub_13A978
 0001:0013A984       _Smacksub_13A984
 0001:0013A990       _Smacksub_13A990
 0001:0013A99C       _Smacksub_13A99C
 0001:0013A9A8       _Smacksub_13A9A8
 0001:0013A9B8       _Smacksub_13A9B8
 0001:0013A9C8       _Smacksub_13A9C8
 0001:0013A9D8       _Smacksub_13A9D8
 0001:0013A9E8       _SmackInternalSwitch1_case064
 0001:0013A9F8       _Smacksub_13A9F8
 0001:0013AA08       _Smacksub_13AA08
 0001:0013AA18       _Smacksub_13AA18
 0001:0013AA28       _Smacksub_13AA28
 0001:0013AA34       _Smacksub_13AA34
 0001:0013AA40       _Smacksub_13AA40
 0001:0013AA50       _Smacksub_13AA50
 0001:0013AA5C       _Smacksub_13AA5C
 0001:0013AA68       _Smacksub_13AA68
 0001:0013AA74       _Smacksub_13AA74
 0001:0013AA80       _Smacksub_13AA80
 0001:0013AA8C       _Smacksub_13AA8C
 0001:0013AA9C       _Smacksub_13AA9C
 0001:0013AAAC       _Smacksub_13AAAC
 0001:0013AABC       _Smacksub_13AABC
 0001:0013AACC       _SmackInternalSwitch1_case080
 0001:0013AADC       _Smacksub_13AADC
 0001:0013AAEC       _Smacksub_13AAEC
 0001:0013AAFC       _Smacksub_13AAFC
 0001:0013AB0C       _Smacksub_13AB0C
 0001:0013AB18       _Smacksub_13AB18
 0001:0013AB20       _Smacksub_13AB20
 0001:0013AB2C       _Smacksub_13AB2C
 0001:0013AB38       _Smacksub_13AB38
 0001:0013AB44       _Smacksub_13AB44
 0001:0013AB50       _Smacksub_13AB50
 0001:0013AB58       _Smacksub_13AB58
 0001:0013AB64       _Smacksub_13AB64
 0001:0013AB74       _Smacksub_13AB74
 0001:0013AB84       _Smacksub_13AB84
 0001:0013AB94       _Smacksub_13AB94
 0001:0013ABA4       _SmackInternalSwitch1_case096
 0001:0013ABB4       _SmackInternalSwitch1_case097
 0001:0013ABC4       _SmackInternalSwitch1_case098
 0001:0013ABD4       _SmackInternalSwitch1_case099
 0001:0013ABE4       _SmackInternalSwitch1_case100
 0001:0013ABF4       _SmackInternalSwitch1_case101
 0001:0013AC00       _SmackInternalSwitch1_case102
 0001:0013AC0C       _SmackInternalSwitch1_case103
 0001:0013AC1C       _SmackInternalSwitch1_case104
 0001:0013AC2C       _SmackInternalSwitch1_case105
 0001:0013AC38       _SmackInternalSwitch1_case106
 0001:0013AC44       _SmackInternalSwitch1_case107
 0001:0013AC54       _SmackInternalSwitch1_case108
 0001:0013AC64       _SmackInternalSwitch1_case109
 0001:0013AC74       _SmackInternalSwitch1_case110
 0001:0013AC84       _SmackInternalSwitch1_case111
 0001:0013AC94       _SmackInternalSwitch1_case112
 0001:0013ACA4       _SmackInternalSwitch1_case113
 0001:0013ACB4       _SmackInternalSwitch1_case114
 0001:0013ACC4       _SmackInternalSwitch1_case115
 0001:0013ACD4       _SmackInternalSwitch1_case116
 0001:0013ACE0       _SmackInternalSwitch1_case117
 0001:0013ACEC       _SmackInternalSwitch1_case118
 0001:0013ACFC       _SmackInternalSwitch1_case119
 0001:0013AD08       _SmackInternalSwitch1_case120
 0001:0013AD14       _SmackInternalSwitch1_case121
 0001:0013AD20       _SmackInternalSwitch1_case122
 0001:0013AD2C       _SmackInternalSwitch1_case123
 0001:0013AD38       _SmackInternalSwitch1_case124
 0001:0013AD48       _SmackInternalSwitch1_case125
 0001:0013AD58       _SmackInternalSwitch1_case126
 0001:0013AD68       _SmackInternalSwitch1_case127
 0001:0013AD78       _SmackInternalSwitch1_case128
 0001:0013AD84       _SmackInternalSwitch1_case129
 0001:0013AD90       _SmackInternalSwitch1_case130
 0001:0013AD9C       _SmackInternalSwitch1_case131
 0001:0013ADA8       _SmackInternalSwitch1_case132
 0001:0013ADB4       _SmackInternalSwitch1_case133
 0001:0013ADC0       _SmackInternalSwitch1_case134
 0001:0013ADD0       _SmackInternalSwitch1_case135
 0001:0013ADDC       _SmackInternalSwitch1_case136
 0001:0013ADE4       _SmackInternalSwitch1_case137
 0001:0013ADF0       _SmackInternalSwitch1_case138
 0001:0013ADF8       _SmackInternalSwitch1_case139
 0001:0013AE00       _SmackInternalSwitch1_case140
 0001:0013AE0C       _SmackInternalSwitch1_case141
 0001:0013AE18       _SmackInternalSwitch1_case142
 0001:0013AE24       _SmackInternalSwitch1_case143
 0001:0013AE30       _SmackInternalSwitch1_case144
 0001:0013AE3C       _SmackInternalSwitch1_case145
 0001:0013AE4C       _SmackInternalSwitch1_case146
 0001:0013AE58       _SmackInternalSwitch1_case147
 0001:0013AE64       _SmackInternalSwitch1_case148
 0001:0013AE74       _SmackInternalSwitch1_case149
 0001:0013AE80       _SmackInternalSwitch1_case150
 0001:0013AE8C       _SmackInternalSwitch1_case151
 0001:0013AE9C       _SmackInternalSwitch1_case152
 0001:0013AEA8       _SmackInternalSwitch1_case153
 0001:0013AEB4       _SmackInternalSwitch1_case154
 0001:0013AEC0       _SmackInternalSwitch1_case155
 0001:0013AECC       _SmackInternalSwitch1_case156
 0001:0013AED8       _SmackInternalSwitch1_case157
 0001:0013AEE8       _SmackInternalSwitch1_case158
 0001:0013AEF4       _SmackInternalSwitch1_case159
 0001:0013AF00       _SmackInternalSwitch1_case160
 0001:0013AF0C       _SmackInternalSwitch1_case161
 0001:0013AF18       _SmackInternalSwitch1_case162
 0001:0013AF24       _SmackInternalSwitch1_case163
 0001:0013AF30       _SmackInternalSwitch1_case164
 0001:0013AF3C       _SmackInternalSwitch1_case165
 0001:0013AF44       _SmackInternalSwitch1_case166
 0001:0013AF50       _SmackInternalSwitch1_case167
 0001:0013AF5C       _SmackInternalSwitch1_case168
 0001:0013AF64       _SmackInternalSwitch1_case169
 0001:0013AF70       _SmackInternalSwitch1_case170
 0001:0013AF78       _SmackInternalSwitch1_case171
 0001:0013AF80       _SmackInternalSwitch1_case172
 0001:0013AF8C       _SmackInternalSwitch1_case173
 0001:0013AF98       _SmackInternalSwitch1_case174
 0001:0013AFA4       _SmackInternalSwitch1_case175
 0001:0013AFB0       _SmackInternalSwitch1_case176
 0001:0013AFBC       _SmackInternalSwitch1_case177
 0001:0013AFC8       _SmackInternalSwitch1_case178
 0001:0013AFD4       _SmackInternalSwitch1_case179
 0001:0013AFE0       _SmackInternalSwitch1_case180
 0001:0013AFEC       _SmackInternalSwitch1_case181
 0001:0013AFF8       _SmackInternalSwitch1_case182
 0001:0013B008       _SmackInternalSwitch1_case183
 0001:0013B014       _SmackInternalSwitch1_case184
 0001:0013B01C       _SmackInternalSwitch1_case185
 0001:0013B028       _SmackInternalSwitch1_case186
 0001:0013B030       _SmackInternalSwitch1_case187
 0001:0013B038       _SmackInternalSwitch1_case188
 0001:0013B044       _SmackInternalSwitch1_case189
 0001:0013B050       _SmackInternalSwitch1_case190
 0001:0013B05C       _SmackInternalSwitch1_case191
 0001:0013B068       _SmackInternalSwitch1_case192
 0001:0013B078       _SmackInternalSwitch1_case193
 0001:0013B088       _SmackInternalSwitch1_case194
 0001:0013B098       _SmackInternalSwitch1_case195
 0001:0013B0A8       _SmackInternalSwitch1_case196
 0001:0013B0B8       _SmackInternalSwitch1_case197
 0001:0013B0C8       _SmackInternalSwitch1_case198
 0001:0013B0D8       _SmackInternalSwitch1_case199
 0001:0013B0E8       _SmackInternalSwitch1_case200
 0001:0013B0F4       _SmackInternalSwitch1_case201
 0001:0013B100       _SmackInternalSwitch1_case202
 0001:0013B10C       _SmackInternalSwitch1_case203
 0001:0013B118       _SmackInternalSwitch1_case204
 0001:0013B124       _SmackInternalSwitch1_case205
 0001:0013B130       _SmackInternalSwitch1_case206
 0001:0013B13C       _SmackInternalSwitch1_case207
 0001:0013B148       _SmackInternalSwitch1_case208
 0001:0013B158       _SmackInternalSwitch1_case209
 0001:0013B168       _SmackInternalSwitch1_case210
 0001:0013B178       _SmackInternalSwitch1_case211
 0001:0013B188       _SmackInternalSwitch1_case212
 0001:0013B198       _SmackInternalSwitch1_case213
 0001:0013B1A8       _SmackInternalSwitch1_case214
 0001:0013B1B8       _SmackInternalSwitch1_case215
 0001:0013B1C8       _SmackInternalSwitch1_case216
 0001:0013B1D4       _SmackInternalSwitch1_case217
 0001:0013B1E0       _SmackInternalSwitch1_case218
 0001:0013B1EC       _SmackInternalSwitch1_case219
 0001:0013B1F8       _SmackInternalSwitch1_case220
 0001:0013B204       _SmackInternalSwitch1_case221
 0001:0013B210       _SmackInternalSwitch1_case222
 0001:0013B220       _SmackInternalSwitch1_case223
 0001:0013B22C       _SmackInternalSwitch1_case224
 0001:0013B23C       _SmackInternalSwitch1_case225
 0001:0013B24C       _SmackInternalSwitch1_case226
 0001:0013B25C       _SmackInternalSwitch1_case227
 0001:0013B26C       _SmackInternalSwitch1_case228
 0001:0013B27C       _SmackInternalSwitch1_case229
 0001:0013B28C       _SmackInternalSwitch1_case230
 0001:0013B29C       _SmackInternalSwitch1_case231
 0001:0013B2AC       _SmackInternalSwitch1_case232
 0001:0013B2B8       _SmackInternalSwitch1_case233
 0001:0013B2C4       _SmackInternalSwitch1_case234
 0001:0013B2D0       _SmackInternalSwitch1_case235
 0001:0013B2DC       _SmackInternalSwitch1_case236
 0001:0013B2E8       _SmackInternalSwitch1_case237
 0001:0013B2F8       _SmackInternalSwitch1_case238
 0001:0013B304       _SmackInternalSwitch1_case239
 0001:0013B310       _SmackInternalSwitch1_case240
 0001:0013B320       _SmackInternalSwitch1_case241
 0001:0013B330       _SmackInternalSwitch1_case242
 0001:0013B340       _SmackInternalSwitch1_case243
 0001:0013B350       _SmackInternalSwitch1_case244
 0001:0013B360       _SmackInternalSwitch1_case245
 0001:0013B370       _SmackInternalSwitch1_case246
 0001:0013B380       _SmackInternalSwitch1_case247
 0001:0013B390       _SmackInternalSwitch1_case248
 0001:0013B39C       _SmackInternalSwitch1_case249
 0001:0013B3A8       _SmackInternalSwitch1_case250
 0001:0013B3B4       _SmackInternalSwitch1_case251
 0001:0013B3C0       _SmackInternalSwitch1_case252
 0001:0013B3CC       _SmackInternalSwitch1_case253
 0001:0013B3D8       _SmackInternalSwitch1_case254
 0001:0013B3E4       _SmackInternalSwitch1_case255
 0001:0013B3F0       _SmackInternal010
 0001:0013B730       _SmackInternal013
 0001:0013BF40       _SmackInternal014
 0001:0013C090       _SmackInternal015
 0001:0013C220       _Unsmack
 0001:0013C5F0       _SmackDoPCM
 0001:0013CE20       _SmackGetSizeDeltas
 0001:0013CE40       _SmackGetRect
 0001:0013CF60       _SmackRemapTables
 0002:00000000       ser_start_
 0002:00000002       com_port
 0002:00000004       func_body
 0002:0000007D       sdebugColors
 0003:00150100       poly_screen
 0003:00150104       _vec_screen
 0003:00150108       _vec_map
 0003:0015010C       _vec_pal
 0003:00150110       _vec_screen_width
 0003:00150114       _vec_window_width
 0003:00150118       _vec_window_height
 0003:0015011C       dither_map
 0003:00150120       dither_end
 0003:00150124       polyscans
 0003:00152E24       _vec_colour
 0003:00152E25       _vec_mode
 0003:00152E28       default_agent_tiles_x
 0003:00152E30       default_agent_tiles_z
 0003:00152E5C       deep_radar_surface_col
 0003:00152E5D       deep_radar_line_col
 0003:00152E5E       waft_table2
 0003:00152E9E       waft_table
 0003:00152EE4       engn_xc
 0003:00152EE8       engn_zc
 0003:00152F04       shadowtexture
 0003:00153054       unk01_load_files
 0003:0015315C       conf_file_cmnds
 0003:00153184       unkn_prop_03
 0003:00153188       aCTmp
 0003:001531A0       engine_mem_alloc_size
 0003:001531A4       female_peep
 0003:001531A6       head_my_path
 0003:001531A8       user_name
 0003:001531DC       next_ex_face
 0003:001531E2       prim4_textures_count
 0003:001531E4       prim_face_textures_count
 0003:001531E6       prim_object_points_count
 0003:001531E8       prim_object_faces_count
 0003:001531EA       prim_object_faces4_count
 0003:001531EC       prim_objects_count
 0003:001531EE       next_traffic
 0003:001531F0       next_mission
 0003:001531F2       fifties_per_gameturn
 0003:001531F4       next_anim_tmap
 0003:001531F8       render_area_a
 0003:001531FA       render_area_b
 0003:001531FC       overall_scale
 0003:001531FE       next_normal
 0003:00153200       next_quick_light
 0003:00153202       next_full_light
 0003:00153204       next_face_texture
 0003:00153206       next_floor_texture
 0003:0015320A       next_object_point
 0003:0015320C       next_object_face
 0003:0015320E       next_object_face4
 0003:00153210       next_object
 0003:00153212       next_light_command
 0003:0015321A       commands_count
 0003:0015321E       next_used_objective
 0003:00153222       next_col_vect
 0003:00153224       next_vects_list
 0003:00153226       next_walk_header
 0003:00153228       next_walk_item
 0003:00153230       next_local_mat
 0003:00153232       next_special_face
 0003:00153234       next_special_face4
 0003:00153238       mouse_map_x
 0003:0015323C       mouse_map_z
 0003:00153240       seed
 0003:00153244       net_players_num
 0003:00153248       session_name
 0003:00153268       fadedat_fname
 0003:00153274       tables_fname
 0003:00153278       tex00dat_fname
 0003:0015327C       wmstxt_fname
 0003:00153280       netscantxt_fname
 0003:00153284       citytxt_fname
 0003:00153288       bgmandat_fname
 0003:0015328C       bgmanzdat_fname
 0003:00153290       bgmanbdat_fname
 0003:00153294       sprojdat_fname
 0003:00153298       zprojdat_fname
 0003:0015329C       bprojdat_fname
 0003:001532B0       fname
 0003:001532D0       data_path_base
 0003:001532D4       paDataMsprD_dat
 0003:001532D8       palette_fname_fmt
 0003:001532DC       pop_dat_fname_fmt
 0003:001532E0       pop_tab_fname_fmt
 0003:001532E4       primvehobj_fname
 0003:001532E8       maps_dir
 0003:001532EC       tmapani_fname
 0003:001532F0       paTextdataDir
 0003:001532FC       citiesdat_fname
 0003:00153300       paTextdataObj_txt
 0003:00153304       levels_dir
 0003:00153308       savegame_mortal_fname
 0003:0015330C       paQdataSavegam_5
 0003:00153310       paQdataSavegam_6
 0003:00153314       paTextdataNames_
 0003:00153318       paQdataPosdefs
 0003:0015331C       paQdataAlltext
 0003:00153320       paDataMsprD_tab
 0003:00153328       game_dirs
 0003:00153350       sfx_man_shot
 0003:00153358       sfx_woman_shot
 0003:0015335C       angle_direction
 0003:0015337C       unkn01_maskarr
 0003:00153398       follow_dist
 0003:001533A8       W?unk02_load_files$n__$TbLoadFiles$$
 0003:0015363C       aSyn2PrototypeEngine
 0003:00153654       car_glare
 0003:00153774       master_glare
 0003:001537B4       gameobjctv_names
 0003:00153820       objective_textnames
 0003:00153884       poo_textnames
 0003:001538B2       jskeys
 0003:001538E2       kbkeys
 0003:001539C4       mem_game
 0003:00153D5C       people_frames
 0003:0015401C       weapon_defs
 0003:00154359       weapon_nrg
 0003:00154379       weapon_range
 0003:00154399       weapon_damage
 0003:001543B8       weapon_sound
 0003:001543D8       weapon_sound_z
 0003:001543F8       weapon_tech_level
 0003:0015441C       mod_defs
 0003:001545B4       mod_tech_level
 0003:001545C8       game_panel_lo
 0003:001546F8       game_panel_hi
 0003:00154838       game_panel
 0003:0015483C       zoom_levels
 0003:00154872       pointer_hotspot
 0003:00154890       peep_type_stats
 0003:001549E4       static_radii
 0003:00154AAC       person_st_text
 0003:00154BBC       control_keys_text
 0003:00154F0C       aConfirmCritica
 0003:00154F68       seed_ps
 0003:00154F74       dont_bother_with_explode_faces
 0003:00154F88       plasma_width
 0003:00154F90       zig_zag
 0003:00155003       mod1_anim_no
 0003:00155008       mod2_anim_no
 0003:00155018       z
 0003:00155020       quiver
 0003:0015505C       unplace
 0003:001550D0       W?nav_rulesA2B$npn(ll)l
 0003:001550D4       W?MOD3$n[]xl
 0003:001550EC       selected_triangulation_no
 0003:001550F0       W?tag_current$nuc
 0003:00155120       net_unkn_pos_01
 0003:00155138       a19200
 0003:00155140       unkn_opt_number_text
 0003:00155148       a100
 0003:00155150       rate
 0003:00155154       weapon
 0003:00155158       month_days
 0003:00155164       selected_weapon
 0003:00155165       selected_mod
 0003:00155166       research_selected_wep
 0003:00155167       research_selected_mod
 0003:00155168       research_on_weapons
 0003:00155169       unkn_city_no
 0003:0015516A       city_id
 0003:0015516B       unkstruct04_id
 0003:0015518C       misc_text
 0003:001551A0       shape_coords
 0003:0015521C       subst_table_lower_to_upper
 0003:001552A4       subst_table_unknown1
 0003:001552E4       text_colours
 0003:00155300       turn_last
 0003:00155304       rand_c
 0003:00155308       scanner_blink
 0003:0015530C       scanner_keys
 0003:001553C8       scroll_text
 0003:001553CC       proj_origin_m2
 0003:001553D0       W?proj_origin$n$StartScreenPoint$$
 0003:00155458       weapon_names
 0003:001554D8       aUnusedEmptyArray1
 0003:001554F4       rand_d
 0003:00155588       quick_load_console
 0003:0015566C       objcount_text
 0003:00155708       coords_a
 0003:0015572A       coords_b
 0003:00155760       starting_cash_amounts
 0003:001557AC       BAT_unkn1
 0003:001557E0       BAT_unkn2
 0003:00155878       BAT_levels
 0003:00155D50       W?sound_file$nl
 0003:00155D74       _lbScreenModeInfo
 0003:001561C4       NetTimeoutTicks
 0003:001561C8       W?Network_Service_List$n[]$TbNetworkService$$
 0003:0015621C       __GDAptr
 0003:00156220       __D16Infoseg
 0003:00156224       __argc
 0003:00156228       __argv
 0003:0015622C       _lbSinTable
 0003:00158A2C       _lbInkeyToAscii
 0003:00158AAC       _lbInkeyToAsciiShift
 0003:00158B2C       _smack_malloc
 0003:00158B30       _smack_free
 0003:00158B34       W?InitialCDVolume$nc
 0003:00158B35       _CDAble
 0003:00158B38       _next
 0003:00158B44       ___int23_exit
 0003:00158B50       ___nheapbeg
 0003:00158B5C       aGrip_gll
 0003:00158B68       aGrip
 0003:00158B70       aCGrip
 0003:00158D9C       _SpwVector
 0003:00158D9E       _SpwUnknown1
 0003:00158DA2       aCSpacetec_off
 0003:00158DE4       W?com_dev$n[]$ComHandlerInfo$$
 0003:00158E54       W?modem_response$n[]$ModemResponse$$
 0003:00158FB4       modem_cmds
 0003:001590F4       __dynend
 0003:001590F8       __curbrk
 0003:001590FC       __LpCmdLine
 0003:00159100       __LpPgmName
 0003:00159104       __psp
 0003:00159108       __STACKLOW
 0003:0015910C       __STACKTOP
 0003:00159110       __ASTACKSIZ
 0003:00159114       __ASTACKPTR
 0003:00159118       __cbyte
 0003:0015911C       __cbyte2
 0003:00159120       __child
 0003:00159124       __no87
 0003:00159126       __Extender
 0003:00159127       __ExtenderSubtype
 0003:00159128       __X32VM
 0003:00159129       __Envptr
 0003:0015912D       __Envseg
 0003:0015912F       __osmajor
 0003:00159130       __osminor
 0003:00159131       ___FPE_handler
 0003:001592CC       _fss
 0003:001592D0       _SmackMSSDigDriver
 0003:001592D4       _MSSLiteInit
 0003:001592E0       _sounds
 0003:001592E4       _trackbuf
 0003:001592F0       _LowSoundOpenAddr
 0003:001592F4       _LowSoundOffAddr
 0003:001592F8       _LowSoundOnAddr
 0003:00159300       MaxNumberOfSamples
 0003:00159304       _SoundAble
 0003:00159306       _SoundActive
 0003:00159307       _AutoScanForSoundHardware
 0003:00159308       _StereoSound
 0003:00159309       _CurrentSoundBank
 0003:0015930C       _CurrentSoundMasterVolume
 0003:00159314       _CurrentMusicMasterVolume
 0003:00159318       _MusicAble
 0003:00159319       _MusicActive
 0003:0015931A       _CurrentDangerMusicFadeDirection
 0003:0015931B       _DangerMusicVolumeChange
 0003:0015931C       W?sample_file$nl
 0003:00159320       W?sample_volume$nl
 0003:00159324       W?active$nuc
 0003:00159328       _AIL_locked
 0003:0015932C       W?cd_errors$n[]pna
 0003:00159378       ___iob
 0003:001593B9       stderr___flag
 0003:00159580       ___tmpfnext
 0003:00159581       __fmode
 0003:00159585       _force
 0003:00159590       ___NFiles
 0003:00159594       ___init_mode
 0003:001595E4       __iomode
 0003:001595FC       ___umaskval
 0003:00159600       ___EFG_printf
 0003:00159604       ___EFG_scanf
 0003:0015960A       aStackOverflow
 0003:00159734       aEst
 0003:00159753       aEdt
 0003:00159780       _SmackTimerReadAddr
 0003:00159784       _SmackTimerSetupAddr
 0003:00159788       _disk_err
 0003:0015978C       _MEM_alloc
 0003:00159790       _MEM_free
 0003:00159850       smack_func_addr001
 0003:00159854       smack_func_addr002
 0003:00159858       smack_func_addr003
 0003:0015985C       smack_func_addr004
 0003:00159E48       _CurrentAwe32SoundfontPrefix_0
 0003:00159E54       W?adpcm_handle$nl
 0003:00159E58       W?adaption_table$n[]l
 0003:0015AADC       aSample
 0003:0015AB64       aTimb_0
 0003:0015AB70       _locked_AILXDIG
 0003:0015AB74       ___heap_enabled
 0003:0015AB84       aDiademIncSign
 0003:0015ABD4       ___old_int23
 0003:0015ABDA       ___old_int_ctrl_break
 0003:0015ABE6       ___old_pm_int_ctrl_break
 0003:0015AC6C       ___abort
 0003:0015BE98       __8087
 0003:0015BE99       __real87
 0003:0015BEB0       aGroupDTrucedWi
 0003:0015BECF       aAfterPlacePlay
 0003:0015BEE3       aAfterSimLevel
 0003:0015BEF4       aAfterGroupActi
 0003:0015BF08       aS_11
 0003:0015BF0B       aS_12
 0003:0015BF10       aEngine_c
 0003:0015BF19       aD_20
 0003:0015BF1D       aE
 0003:0015BF1F       aB
 0003:0015BF21       aD_21
 0003:0015BF24       aSMap03d_bB
 0003:0015BF33       aSAll03d_mis
 0003:0015BF42       aDataGenvehic_d
 0003:0015BF54       aDataWepdefs_da
 0003:0015BF65       aDataModdefs_da
 0003:0015BF76       aDataPeepdefs_d
 0003:0015BF88       aObj02d02d_dat
 0003:0015BF98       aSC03dl03d_dD
 0003:0015BFAA       aSC03dl03d_dat
 0003:0015BFBC       aLoadLevelResta
 0003:0015BFD5       aPlacedVehicle
 0003:0015BFE5       aQdataSavegam_2
 0003:0015BFFC       aQdataSavegam_3
 0003:0015C012       aQdataKeys_da_1
 0003:0015C021       aQdataKeys_da_2
 0003:0015C030       aAnon
 0003:0015C035       aSyndicate02d02
 0003:0015C051       aChurch02d02d02
 0003:0015C06A       aUnguided02d02d
 0003:0015C085       aS_idx
 0003:0015C08C       aS_wad
 0003:0015C093       aS_idx_0
 0003:0015C09A       aS_wad_0
 0003:0015C0A4       aConfig_ini
 0003:0015C0AF       aSlanguageSText
 0003:0015C0C6       aDataText_dat
 0003:0015C0D4       aQdataSavegameR
 0003:0015C0ED       aQdataSavegam_0
 0003:0015C107       aQdataSavegam_1
 0003:0015C121       aSlanguageSIntr
 0003:0015C139       aIntroIntro_smk
 0003:0015C149       aSsound
 0003:0015C151       aSound
 0003:0015C157       aSound_0
 0003:0015C15D       aSound_1
 0003:0015C163       aDataPopD1_dat
 0003:0015C174       aDataPopD1_tab
 0003:0015C185       aSetup_hostX
 0003:0015C197       aDataSynghost_t
 0003:0015C1A9       aCd
 0003:0015C1AC       aInstalldrive
 0003:0015C1B9       aLanguage
 0003:0015C1C2       aData_2
 0003:0015C1C7       aIntro
 0003:0015C1CD       aAnims
 0003:0015C1D3       aMaps_0
 0003:0015C1D8       aLevels_0
 0003:0015C1DF       aSound_4
 0003:0015C1E5       aDos
 0003:0015C1EC       aS5s
 0003:0015C1F3       a_lbm
 0003:0015C1F9       a03d_lbm
 0003:0015C202       aS_21
 0003:0015C205       aWb
 0003:0015C208       aSynii
 0003:0015C20E       aSSSTime02d02d0
 0003:0015C22B       aSSSHeure02d02d
 0003:0015C249       aSSSTempo02d02d
 0003:0015C267       aSSSZeit02d02d0
 0003:0015C284       aSSSTiempo02d02
 0003:0015C2A3       aSSSTid02d02d02
 0003:0015C2BF       aSSS
 0003:0015C2CC       aSprDWidthDHeig
 0003:0015C2EF       aD
 0003:0015C2F4       aCryo0DPlayer0D
 0003:0015C30B       aCryo1DPlayer1D
 0003:0015C322       aCryo2DPlayer2D
 0003:0015C339       aCryo3DPlayer3D
 0003:0015C350       aWscreenX
 0003:0015C35C       aId0TrialAllocD
 0003:0015C37C       aSS
 0003:0015C382       aC0DTruceX
 0003:0015C391       aCheckError
 0003:0015C39F       aPlayerSHasTime
 0003:0015C3BA       aYouHaveTimedOu
 0003:0015C3DD       aHostConnection
 0003:0015C3F3       aPlayerSIsOutOf
 0003:0015C410       aDataTables_dat
 0003:0015C420       aDataNsta0_ani
 0003:0015C430       aQdataSavegame8
 0003:0015C447       aQdataSavegameS
 0003:0015C45D       aQdataKeys_dat
 0003:0015C46C       aQdataKeys_da_0
 0003:0015C47C       aDataTex02d_dat
 0003:0015C48D       aDataTex02d_d_0
 0003:0015C49E       aDataTex02d_d_1
 0003:0015C4B0       aQdataPal_pal_1
 0003:0015C4BE       aDataFade_dat
 0003:0015C4CC       aDataSProj_pa_1
 0003:0015C4DC       aDataBgtables_1
 0003:0015C4EE       aDataTables_d_1
 0003:0015C4FE       aDataTex00_dat
 0003:0015C50D       aTextdataWms_tx
 0003:0015C51E       aTextdataNetsca
 0003:0015C533       aTextdataCity_t
 0003:0015C545       aQdataEquipBgma
 0003:0015C55B       aQdataEquipBg_0
 0003:0015C572       aQdataEquipBg_1
 0003:0015C589       aQdataSProj_dat
 0003:0015C59A       aQdataZProj_dat
 0003:0015C5AB       aDataBProj_dat
 0003:0015C5BB       aDataMapout02_0
 0003:0015C5CF       aDataMapinsid_0
 0003:0015C5E1       aQdataEquip
 0003:0015C5ED       aDataSynghost_1
 0003:0015C5FF       aDataIcons00_ta
 0003:0015C611       aDataIcons00_da
 0003:0015C623       aDataWIcons_tab
 0003:0015C634       aDataWIcons_dat
 0003:0015C645       aDataPanel00_ta
 0003:0015C657       aDataPanel00_da
 0003:0015C669       aDataMouse0_tab
 0003:0015C67A       aDataMouse0_dat
 0003:0015C68B       aData_0
 0003:0015C690       aDataMsprD_dat
 0003:0015C6A1       aQdataPalD_dat
 0003:0015C6B1       aDataPopD0_dat
 0003:0015C6C2       aDataPopD0_tab
 0003:0015C6D3       aQdataPrimveh_o
 0003:0015C6E5       aMaps
 0003:0015C6EA       aDataTmap_ani
 0003:0015C6F8       aTextdata
 0003:0015C701       aDataCitiesz_da
 0003:0015C712       aDataCitiesb_da
 0003:0015C723       aDataCities_dat
 0003:0015C733       aTextdataObj_tx
 0003:0015C744       aLevels
 0003:0015C74B       aQdataSavegam_4
 0003:0015C767       aQdataSavegam_5
 0003:0015C784       aQdataSavegam_6
 0003:0015C7A1       aTextdataNames_
 0003:0015C7B4       aQdataPosdefs
 0003:0015C7C2       aQdataAlltext
 0003:0015C7D0       aDataMsprD_tab
 0003:0015C7E2       aData_1
 0003:0015C7E7       aQdata
 0003:0015C7ED       aMaps_1
 0003:0015C7F2       aLevels_1
 0003:0015C7F9       aIntro_0
 0003:0015C7FF       aSound_5
 0003:0015C805       aDataEquip
 0003:0015C810       aGame_obj_null0
 0003:0015C811       aGame_obj_p_dea
 0003:0015C821       aGame_obj_all_g
 0003:0015C835       aGame_obj_mem_g
 0003:0015C849       aGame_obj_p_nea
 0003:0015C859       aGame_obj_mem_0
 0003:0015C86D       aGame_obj_p_arr
 0003:0015C880       aGame_obj_mem_1
 0003:0015C897       aGame_obj_all_0
 0003:0015C8AE       aGame_obj_persu
 0003:0015C8C2       aGame_obj_per_0
 0003:0015C8DA       aGame_obj_per_1
 0003:0015C8F2       aGame_obj_time
 0003:0015C900       aGame_obj_get_i
 0003:0015C912       aGame_obj_use_i
 0003:0015C924       aGame_obj_funds
 0003:0015C933       aGame_obj_destr
 0003:0015C94B       aGame_obj_pkill
 0003:0015C95C       aGame_obj_pki_0
 0003:0015C96D       aGame_obj_pki_1
 0003:0015C982       aGame_obj_use_p
 0003:0015C995       aGame_obj_null1
 0003:0015C996       aGame_obj_prote
 0003:0015C9A9       aGame_obj_p_per
 0003:0015C9BB       aGame_obj_all_1
 0003:0015C9D0       aGame_obj_null2
 0003:0015C9D1       aGame_obj_null3
 0003:0015C9D3       aObjctvAssassinate
 0003:0015C9DF       aObjctvElimGroup
 0003:0015C9EF       aObjctvKillGrpMem
 0003:0015C9FE       aObjctvRendezvous
 0003:0015CA09       aObjctvRendezvous2
 0003:0015CA15       aObjctvGotoLocation
 0003:0015CA23       aObjctvGotoLocatin2
 0003:0015CA31       aObjctvAllGotoLoc
 0003:0015CA43       aObjctvPersuade
 0003:0015CA4C       aObjctvPersGangMem
 0003:0015CA5E       aObjctvPersuadeAllGan
 0003:0015CA70       aObjctvTimer
 0003:0015CA76       aObjctvCollectItem
 0003:0015CA83       aObjctvUseItem
 0003:0015CA8C       aObjctvGetBullion
 0003:0015CA98       aObjctvDestroyBld
 0003:0015CAA9       aObjctvNeutralise
 0003:0015CAB4       aObjctvNeutraliseMem
 0003:0015CAC3       aObjctvNeutraliseG
 0003:0015CAD0       aObjctvUsePA_net
 0003:0015CADC       aObjctvPoo5
 0003:0015CAE1       aObjctvProtectGrp
 0003:0015CAEF       aObjctvPeepPersAll
 0003:0015CB01       aObjctvUseVehicle
 0003:0015CB0D       aObjctvPoo9
 0003:0015CB12       aObjctvPoo10
 0003:0015CB18       aObjctvPoo11
 0003:0015CB1E       aObjctvPoo12
 0003:0015CB24       aMy_big_map_0
 0003:0015CB32       aTextures_0
 0003:0015CB3F       aFace_textures
 0003:0015CB50       aObject_points
 0003:0015CB61       aObject_faces
 0003:0015CB71       aObjects
 0003:0015CB87       aQuick_lights
 0003:0015CB97       aFull_lights
 0003:0015CBA6       aNormals
 0003:0015CBB2       aObject_faces4
 0003:0015CBC3       aAnim_tmaps
 0003:0015CBD1       aTraffic_nodes
 0003:0015CBE2       aLight_commands
 0003:0015CBF3       aCol_vects_list
 0003:0015CC04       aCol_vects
 0003:0015CC12       aWalk_headers
 0003:0015CC22       aWalk_items
 0003:0015CC30       aCol_columns
 0003:0015CC45       aPrim4_textures
 0003:0015CC5A       aPrim_face_text
 0003:0015CC6E       aPrim_object_po
 0003:0015CC83       aPrim_object_fa
 0003:0015CC97       aPrim_object__0
 0003:0015CCAC       aPrim_objects
 0003:0015CCC1       aSpecial_object
 0003:0015CCD7       aSpecial_obje_0
 0003:0015CCEE       aFloor_tiles
 0003:0015CCFD       aUsed_objective
 0003:0015CD0F       aObjectives
 0003:0015CD1D       aUser_heap
 0003:0015CD2B       aScreen_point_p
 0003:0015CD3F       aDraw_list
 0003:0015CD4D       aSort_sprites
 0003:0015CD5D       aSort_lines
 0003:0015CD6B       aCommands
 0003:0015CD78       aBezEdit
 0003:0015CD85       aSpareMapBuffer
 0003:0015CD9C       aUsed_lvl_objec
 0003:0015CDB1       aLevel_miscs
 0003:0015CDC0       aSt_null
 0003:0015CDC1       aSt_goto_point
 0003:0015CDCF       aSt_bomb_buildi
 0003:0015CDE0       aSt_wander
 0003:0015CDEA       aSt_explode_eff
 0003:0015CDFC       aSt_wait
 0003:0015CE04       aSt_agent_defen
 0003:0015CE17       aSt_pickup_item
 0003:0015CE26       aSt_drop_item
 0003:0015CE33       aSt_shoot_perso
 0003:0015CE4D       aSt_shoot_bgun_
 0003:0015CE5E       aSt_die
 0003:0015CE65       aSt_dieing
 0003:0015CE6F       aSt_dead
 0003:0015CE77       aSt_init_save_v
 0003:0015CE8B       aSt_save_victim
 0003:0015CE9A       aSt_goto_person
 0003:0015CEA9       aSt_wait_p_dead
 0003:0015CEB8       aSt_wait_all_g_
 0003:0015CECB       aSt_wait_mem_g_
 0003:0015CEDE       aSt_wait_p_near
 0003:0015CEED       aSt_wait_mem__0
 0003:0015CF00       aSt_wait_p_arri
 0003:0015CF12       aSt_wait_mem__1
 0003:0015CF28       aSt_wait_time
 0003:0015CF35       aSt_define_rout
 0003:0015CF45       aSt_Unused
 0003:0015CF4D       aSt_kill_person
 0003:0015CF5C       aSt_block_perso
 0003:0015CF6C       aSt_scare_perso
 0003:0015CF7C       aSt_use_item
 0003:0015CF89       aSt_stationary_
 0003:0015CF9C       aSt_recoil_hit
 0003:0015CFAA       aSt_v_parked
 0003:0015CFB6       aSt_v_driven
 0003:0015CFC2       aSt_goto_point_
 0003:0015CFD4       aSt_person_burn
 0003:0015CFE6       aSt_in_vehicle
 0003:0015CFF4       aSt_driving_veh
 0003:0015D007       aSt_v_goto_poin
 0003:0015D01B       aSt_persuade_pe
 0003:0015D02E       aSt_follow_pers
 0003:0015D03F       aSt_support_per
 0003:0015D051       aSt_protect_per
 0003:0015D063       aSt_get_item
 0003:0015D06F       aSt_use_vehicle
 0003:0015D07E       aSt_use_vehic_0
 0003:0015D096       aSt_wait_vehicl
 0003:0015D0A6       aSt_goto_vehicl
 0003:0015D0B6       aSt_catch_train
 0003:0015D0C5       aSt_wait_train
 0003:0015D0D3       aSt_destroy_bui
 0003:0015D0E7       aSt_wander_driv
 0003:0015D0F7       aSt_go_plant_mi
 0003:0015D108       aSt_wait_to_exi
 0003:0015D120       aSt_catch_ferry
 0003:0015D12F       aSt_exit_ferry
 0003:0015D13D       aSt_avoid_group
 0003:0015D14C       aSt_undef58
 0003:0015D14D       aSt_undef59
 0003:0015D14E       aSt_undef60
 0003:0015D14F       aSt_undef61
 0003:0015D150       aSt_undef62
 0003:0015D151       aSt_undef63
 0003:0015D152       aSt_undef64
 0003:0015D153       aSt_undef65
 0003:0015D154       aKbEscape
 0003:0015D15B       aKb1
 0003:0015D15D       aKb2
 0003:0015D15F       aKb3
 0003:0015D161       aKb4
 0003:0015D163       aKb5
 0003:0015D165       aKb6
 0003:0015D167       aKb7
 0003:0015D169       aKb8
 0003:0015D16B       aKb9
 0003:0015D16D       aKb0
 0003:0015D16F       aKbMinus
 0003:0015D171       aKbEqu
 0003:0015D173       aKbBackspace
 0003:0015D17D       aKbTab
 0003:0015D181       aKbQ
 0003:0015D183       aKbW
 0003:0015D185       aKbE
 0003:0015D187       aKbR
 0003:0015D189       aKbT
 0003:0015D18B       aKbY
 0003:0015D18D       aKbU
 0003:0015D18F       aKbI
 0003:0015D191       aKbO
 0003:0015D193       aKbP
 0003:0015D195       aKbOSq
 0003:0015D197       aKbCSq
 0003:0015D199       aKbReturn
 0003:0015D1A0       aKbLeftCtrl
 0003:0015D1AA       aKbA
 0003:0015D1AC       aKbS
 0003:0015D1AE       aKbD
 0003:0015D1B0       aKbF
 0003:0015D1B2       aKbG
 0003:0015D1B4       aKbH
 0003:0015D1B6       aKbJ
 0003:0015D1B8       aKbK
 0003:0015D1BA       aKbL
 0003:0015D1BC       aKbSemiclm
 0003:0015D1BE       aKbUClm
 0003:0015D1C0       aKbUClmb
 0003:0015D1C2       aKbLeftShift
 0003:0015D1CD       aKbHash
 0003:0015D1CF       aKbZ
 0003:0015D1D1       aKbX
 0003:0015D1D3       aKbC
 0003:0015D1D5       aKbV
 0003:0015D1D7       aKbB
 0003:0015D1D9       aKbN
 0003:0015D1DB       aKbM
 0003:0015D1DD       aKbComa
 0003:0015D1DF       aKbDot
 0003:0015D1E1       aKbSlash
 0003:0015D1E3       aKbRightShift
 0003:0015D1EF       aKbKpAster
 0003:0015D1F4       aKbLeftAlt
 0003:0015D1FD       aKbSpace
 0003:0015D203       aKbCapslock
 0003:0015D20C       aKbF1
 0003:0015D20F       aKbF2
 0003:0015D212       aKbF3
 0003:0015D215       aKbF4
 0003:0015D218       aKbF5
 0003:0015D21B       aKbF6
 0003:0015D21E       aKbF7
 0003:0015D221       aKbF8
 0003:0015D224       aKbF9
 0003:0015D227       aKbF10
 0003:0015D22B       aKbNumlock
 0003:0015D233       aKbScrlock
 0003:0015D23B       aKbKp7
 0003:0015D240       aKbKp8
 0003:0015D245       aKbKp9
 0003:0015D24A       aKbKpMins
 0003:0015D24F       aKbKp4
 0003:0015D254       aKbKp5
 0003:0015D259       aKbKp6
 0003:0015D25E       aKbKpPlus
 0003:0015D263       aKbKp1
 0003:0015D268       aKbKp2
 0003:0015D26D       aKbKp3
 0003:0015D272       aKbKp0
 0003:0015D277       aKbKpDot
 0003:0015D27C       aKbBSlash
 0003:0015D27E       aKbF11
 0003:0015D282       aKbF12
 0003:0015D286       aKbEnter
 0003:0015D28C       aKbRightCtrl
 0003:0015D297       aKbKpSlash
 0003:0015D29C       aKbPrintScr
 0003:0015D2A6       aKbRightAlt
 0003:0015D2B0       aKbHome
 0003:0015D2B5       aKbUp
 0003:0015D2B8       aKbPgup
 0003:0015D2BD       aKbLeft
 0003:0015D2C2       aKbRight
 0003:0015D2C8       aKbEnd
 0003:0015D2CC       aKbDown
 0003:0015D2D1       aKbPgdn
 0003:0015D2D6       aKbInsert
 0003:0015D2DD       aKbDelete
 0003:0015D2E4       aSetup_screen_m
 0003:0015D2F9       aDataTextwalk_d
 0003:0015D30C       aD_0
 0003:0015D30F       aD_1
 0003:0015D314       aStrangeThingOw
 0003:0015D34C       aADBDCDDDGxDGyD
 0003:0015D371       aIntersect
 0003:0015D37C       aPersRestartCom
 0003:0015D39C       aOtherRestartCo
 0003:0015D3BD       aRcomErrorNextD
 0003:0015D3E4       aStillThingOnMa
 0003:0015D402       aStillSimpleOnM
 0003:0015D424       aD_2
 0003:0015D428       aFliColour256
 0003:0015D433       aFliSs2
 0003:0015D438       aFliColour
 0003:0015D440       aFliLc
 0003:0015D444       aFliBlack
 0003:0015D44B       aFliBrun
 0003:0015D451       aFliCopy
 0003:0015D457       aFliPstamp
 0003:0015D45F       aSlanguageSSyn_
 0003:0015D479       aDataSyn_ele_sm
 0003:0015D48A       aQdataSyn_mc_sm
 0003:0015D49B       aQdataSyn_fail_
 0003:0015D4AE       aQdataSyn_go_sm
 0003:0015D4BF       aSlanguageSChu_
 0003:0015D4D9       aDataChu_ele_sm
 0003:0015D4EA       aQdataZelMc_smk
 0003:0015D4FB       aQdataSyn_fai_0
 0003:0015D50E       aQdataZelGo_smk
 0003:0015D51F       aQdataDemo1D_fl
 0003:0015D532       aNSyn2SwarsData
 0003:0015D54F       aDataMcomp_fli
 0003:0015D55E       aDataMcomp_fl_0
 0003:0015D56D       aDataMcomp_fl_1
 0003:0015D57C       aDataEquipNet02
 0003:0015D593       aDataEquipWep02
 0003:0015D5AB       aDataEquipWep_0
 0003:0015D5C4       aDataEquipWep_1
 0003:0015D5DD       aDataEquipMod02
 0003:0015D5F5       aDataEquipMod_0
 0003:0015D60E       aDataEquipMod_1
 0003:0015D628       aMemAllocD
 0003:0015D638       aD_51
 0003:0015D63B       aD_52
 0003:0015D63E       aD_54
 0003:0015D641       aD_55
 0003:0015D644       aGlobal3dStored
 0003:0015D660       aShaggedTrainSt
 0003:0015D677       aTellMdFailedEx
 0003:0015D6A0       aTriIdDDTriangu
 0003:0015D6DD       aDefault_tr
 0003:0015D6E8       aDefault_pt
 0003:0015D6F3       aCannotFindDD
 0003:0015D707       aL002ldN02ldL10
 0003:0015D721       aDelete_pointND
 0003:0015D73D       aEdge_points1Ed
 0003:0015D762       aEdge_points2Ed
 0003:0015D787       aRoute_to_pathL
 0003:0015D7B8       aExceededMaxPat
 0003:0015D7EE       aExceededMaxP_0
 0003:0015D824       aDDDD
 0003:0015D834       aCraterAtDDDept
 0003:0015D850       aMapsMap03d_scn
 0003:0015D861       aSS_0
 0003:0015D868       a04x
 0003:0015D86D       aS_13
 0003:0015D870       aSSS_0
 0003:0015D878       aS_14
 0003:0015D87B       aSSS_1
 0003:0015D883       aS_15
 0003:0015D886       aLost_txt
 0003:0015D88F       aD_22
 0003:0015D892       aS_16
 0003:0015D895       aDSDS
 0003:0015D8A1       aDSDS_0
 0003:0015D8AD       aDSDS_1
 0003:0015D8B9       aDSDS_2
 0003:0015D8C5       aDSDS_3
 0003:0015D8D1       aDSDS_4
 0003:0015D8DD       aDSDS_5
 0003:0015D8E9       aDSDS_6
 0003:0015D8F5       aDC
 0003:0015D8FA       aDC_0
 0003:0015D8FF       aSD
 0003:0015D906       aSD_0
 0003:0015D90D       aDS
 0003:0015D914       aD_23
 0003:0015D917       aD_24
 0003:0015D91A       aD_25
 0003:0015D91D       aD_26
 0003:0015D920       aD_27
 0003:0015D923       aD_28
 0003:0015D926       aD_29
 0003:0015D929       aD_30
 0003:0015D92C       aD_31
 0003:0015D92F       aD_32
 0003:0015D932       aD_33
 0003:0015D937       aD_34
 0003:0015D93A       aD_35
 0003:0015D93D       aD_36
 0003:0015D940       aD_37
 0003:0015D943       aSD_1
 0003:0015D949       aSD_2
 0003:0015D94F       aSSD
 0003:0015D958       aSSD_0
 0003:0015D961       aD_38
 0003:0015D964       aD_39
 0003:0015D967       aD_40
 0003:0015D96A       aD_41
 0003:0015D96D       aD_42
 0003:0015D970       aD_43
 0003:0015D973       aD_44
 0003:0015D976       aD_45
 0003:0015D979       aD_46
 0003:0015D97C       aSD_3
 0003:0015D982       aSD_4
 0003:0015D988       aSSD_1
 0003:0015D991       aSSD_2
 0003:0015D99A       aD_47
 0003:0015D99D       aSD_5
 0003:0015D9A3       aSD_6
 0003:0015D9A9       text2
 0003:0015D9AA       net_unkn40_text
 0003:0015D9AC       aSD_7
 0003:0015D9B2       aD_48
 0003:0015D9B5       aSD_8
 0003:0015D9BB       aSD_9
 0003:0015D9C1       aAltS
 0003:0015D9C8       aS_17
 0003:0015D9CB       aFooD
 0003:0015D9D2       a___
 0003:0015D9D6       a____0
 0003:0015D9DA       aSS_1
 0003:0015D9E1       aS_18
 0003:0015D9E5       aSD_10
 0003:0015D9EC       a02d02d
 0003:0015D9F6       a02d02d_0
 0003:0015DA00       aAm
 0003:0015DA03       aPm
 0003:0015DA06       aS_19
 0003:0015DA09       a02d02d02d_0
 0003:0015DA18       aD_49
 0003:0015DA1B       aD_50
 0003:0015DA1E       a02d02d_1
 0003:0015DA28       a02dnc
 0003:0015DA2F       aSFont01_dat
 0003:0015DA3E       aSFont01_tab
 0003:0015DA4D       aSFont02_dat
 0003:0015DA5C       aSFont02_tab
 0003:0015DA6B       aSFont03_dat
 0003:0015DA7A       aSFont03_tab
 0003:0015DA89       aSFont04_dat
 0003:0015DA98       aSFont04_tab
 0003:0015DAA7       aSFont05_dat
 0003:0015DAB6       aSFont05_tab
 0003:0015DAC5       aDataMapout02d_
 0003:0015DAD9       aCouldnTReadInD
 0003:0015DAFE       aDataMapinsid_d
 0003:0015DB10       a01234567890
 0003:0015DB1C       aDataBgtables_d
 0003:0015DB2E       aDataStartgho_d
 0003:0015DB40       aDataSProj_pal
 0003:0015DB50       aModem_cfg
 0003:0015DB5A       aDataBgtables_0
 0003:0015DB6C       aDataStartgho_0
 0003:0015DB7E       aDataSProj_pa_0
 0003:0015DB8E       aModem_cfg_0
 0003:0015DB98       aSlanguageSIn_0
 0003:0015DBB0       aIntroIntro_s_0
 0003:0015DBC0       aSMail03d_txt
 0003:0015DBD0       aSMiss03d_txt
 0003:0015DBE1       aD_3
 0003:0015DBE4       aD_4
 0003:0015DBE7       aD_5
 0003:0015DBEA       aSMail03d_txt_0
 0003:0015DBFA       aSMiss03d_txt_0
 0003:0015DC0A       aSynii_0
 0003:0015DC10       aMapsMap03d_s_0
 0003:0015DC21       aQdataPal_pal
 0003:0015DC2F       aDataTables_d_0
 0003:0015DC3F       aDataSynghost_0
 0003:0015DC51       asc0
 0003:0015DC53       ascC
 0003:0015DC55       ascSlash
 0003:0015DC57       ascNc
 0003:0015DC5A       ascRef
 0003:0015DC60       aQdataPal_pal_2
 0003:0015DC6E       aQdataPal_pal_3
 0003:0015DC7C       aQdataPal_pal_4
 0003:0015DC8A       aD20sTDIdD
 0003:0015DCA4       aSSaidNothing_
 0003:0015DCB5       aSS_2
 0003:0015DCBC       aS_20
 0003:0015DCBF       aCCSC
 0003:0015DCC8       aDD
 0003:0015DCD0       aD_56
 0003:0015DCD3       aNoObjective
 0003:0015DCE0       aBadPhwoarTypeD
 0003:0015DCF3       aXYZ0xX0xX0xXOw
 0003:0015DD2C       aThDIdD
 0003:0015DD38       aThDIdD_0
 0003:0015DD44       aD_53
 0003:0015DD48       aU
 0003:0015DD4B       aIu
 0003:0015DD53       aIgnoreEnemies
 0003:0015DD62       aLoopComD
 0003:0015DD6E       aGoToPointXDYDZ
 0003:0015DD86       aPlaySampleD
 0003:0015DD95       aRunToPointXDZD
 0003:0015DDAA       aGotopointFaceD
 0003:0015DDC4       aKillEveryone
 0003:0015DDD2       aWithinAreaXDYD
 0003:0015DDEA       aWithinOff
 0003:0015DDF5       aExecuteComsPly
 0003:0015DE09       aGuardOff
 0003:0015DE13       aHardAsAgent
 0003:0015DE21       aPingExist
 0003:0015DE2C       aStartDangerMus
 0003:0015DE3F       aSelf_destruct
 0003:0015DE4D       aGoToPersonD
 0003:0015DE5D       aCameraTrackD
 0003:0015DE6D       aKillPersonD
 0003:0015DE7C       aKillDMemGroupD
 0003:0015DE91       aUntruceGroupD
 0003:0015DEA2       aKillAllGroupD
 0003:0015DEB4       aFollowPersonD
 0003:0015DEC5       aProtectMemGD
 0003:0015DED6       aSupportPersonD
 0003:0015DEE8       aProtectPersonD
 0003:0015DF01       aBlockPersonD
 0003:0015DF11       aScarePersonD
 0003:0015DF21       aPersuadePerson
 0003:0015DF34       aPersuadeAllGD
 0003:0015DF46       aPersuadeDMemGD
 0003:0015DF5B       aAvoidPersonD
 0003:0015DF6B       aWandAvoidGroup
 0003:0015DF7F       aHide
 0003:0015DF84       aDestroyBuildin
 0003:0015DF98       aCatchTrainD
 0003:0015DFA7       aCatchFerryD
 0003:0015DFB6       aExitFerryD
 0003:0015DFC4       aOpenDomeD
 0003:0015DFD1       aCloseDomeD
 0003:0015DFDF       aLockBuildD
 0003:0015DFED       aUnlockBuildD
 0003:0015DFFD       aGetItemD
 0003:0015E009       aSelectWeaponS
 0003:0015E01B       aUseWeaponS
 0003:0015E029       aDropSpecItemD
 0003:0015E03B       aDropWeaponS
 0003:0015E04A       aUseVehicleD
 0003:0015E059       aExitVehicle
 0003:0015E066       aWaitPVDeadD
 0003:0015E077       aWaitPVINearD
 0003:0015E08A       aPingPVD
 0003:0015E096       aWaitPVIArrives
 0003:0015E0B8       aWaitPPersuaded
 0003:0015E0CC       aWaitDMemGDeadD
 0003:0015E0E2       aWaitDMemGDNear
 0003:0015E0F9       aWaitDMemGArriv
 0003:0015E111       aWaitDMemGPersu
 0003:0015E12C       aWaitAllGDeadD
 0003:0015E13F       aWaitAllGDNear
 0003:0015E153       aWaitAllGArrive
 0003:0015E168       aWaitAllGPersua
 0003:0015E180       aWaitMissionSta
 0003:0015E196       aWaitMissionSuc
 0003:0015E1AB       aWaitMissionFai
 0003:0015E1C0       aWaitObjectDest
 0003:0015E1E5       aWaitTimeD
 0003:0015E1F2       aWaitObj
 0003:0015E1FD       aWandPVDeadD
 0003:0015E20E       aWandPVINearD
 0003:0015E221       aWandPVIArrives
 0003:0015E243       aWandPPersuaded
 0003:0015E257       aWandDMemGDDead
 0003:0015E26E       aWandDMemGDNear
 0003:0015E285       aWandDMemGArriv
 0003:0015E29D       aWandDMemGPersu
 0003:0015E2B8       aWandAllGDeadD
 0003:0015E2CB       aWandAllGDNear
 0003:0015E2DF       aWandAllGArrive
 0003:0015E2F4       aWandAllGPersua
 0003:0015E30C       aWandObj
 0003:0015E317       aWandMissionSta
 0003:0015E32D       aWandMissionSuc
 0003:0015E342       aWandMissionFai
 0003:0015E357       aWandObjectDest
 0003:0015E37C       aWandTimeD
 0003:0015E389       aUntilGDNotSeen
 0003:0015E39D       aUntilPVDeadD
 0003:0015E3AF       aUntilPVINearD
 0003:0015E3C3       aUntilPVIArrive
 0003:0015E3E6       aUntilPPersuade
 0003:0015E3FB       aUntilDMemGDead
 0003:0015E412       aUntilDMemGDNea
 0003:0015E42A       aUntilDMemGArri
 0003:0015E443       aUntilDMemGPers
 0003:0015E45F       aUntilAllGDeadD
 0003:0015E473       aUntilAllGDNear
 0003:0015E488       aUntilAllGArriv
 0003:0015E49E       aUntilAllGPersu
 0003:0015E4B7       aUntilObj
 0003:0015E4C3       aUntilMissionSt
 0003:0015E4DA       aUntilMissionSu
 0003:0015E4F0       aUntilMissionFa
 0003:0015E506       aUntilObjectDes
 0003:0015E52C       aUntilTimeD
 0003:0015E53A       aStateDSMoodDGD
 0003:0015E56F       aF08xSpdDOfDHeD
 0003:0015E5A1       aF208xF3XCwDWcX
 0003:0015E5D4       aTarg2DPtargXGo
 0003:0015E5F0       aDa
 0003:0015E5F3       aRe
 0003:0015E5F6       aSi
 0003:0015E5F9       aDe
 0003:0015E5FC       aCh
 0003:0015E5FF       aCi
 0003:0015E602       aSap
 0003:0015E606       aSta
 0003:0015E60A       aTrig
 0003:0015E60F       aPersonLastdist
 0003:0015E631       aVehicle
 0003:0015E639       aTypeD
 0003:0015E641       aBDLDADBrDSkD
 0003:0015E65C       aT1DT2DCtDRtDBc
 0003:0015E67A       aNDFDXDZD
 0003:0015E691       aWepNull
 0003:0015E692       aWepUzi
 0003:0015E697       aWepMinigun
 0003:0015E6A0       aWepLaser
 0003:0015E6A7       aWepElLaser
 0003:0015E6B7       aWepRap
 0003:0015E6BC       aWepNuclGren
 0003:0015E6CD       aWepPersuadrtrn
 0003:0015E6DC       aWepFlamer
 0003:0015E6E4       aWepH2HTaser
 0003:0015E6F5       aWepCrazyGas
 0003:0015E700       aWepKOGas
 0003:0015E70E       aWepEleMine
 0003:0015E71D       aWepExplMine
 0003:0015E72D       aWepNapalmMine
 0003:0015E73D       aWepLongRange
 0003:0015E749       aWepAirStrike
 0003:0015E755       aWepBeam
 0003:0015E75B       aWepRazorWire
 0003:0015E767       aWepSonicBlast
 0003:0015E774       aWepQDevastator
 0003:0015E782       aWepPersuader2
 0003:0015E792       aWepStasisFld
 0003:0015E7A0       aWepEnergyShld
 0003:0015E7AF       aWepSoulGun
 0003:0015E7B9       aWepTimeGun
 0003:0015E7C3       aWepCerebusIff
 0003:0015E7D0       aWepMedi1
 0003:0015E7D8       aWepMedi2
 0003:0015E7E0       aWepExplWire
 0003:0015E7EE       aWepCloneShld
 0003:0015E7FC       aEmptyItm0
 0003:0015E7FD       aEmptyItm1
 0003:0015E7FE       aEmptyItm2
 0003:0015E7FF       aEmptyItm3
 0003:0015E800       aEmptyItm4
 0003:0015E801       aEmptyItm5
 0003:0015E802       aEmptyItm6
 0003:0015E804       aDataMech_txt
 0003:0015E812       aDataMech_dat
 0003:0015E820       aPathlengthDPat
 0003:0015E844       aSMap03d_mad
 0003:0015E853       a1
 0003:0015E854       aMy_big_map
 0003:0015E85F       aObjTextures
 0003:0015E868       aObjFace_text
 0003:0015E872       aObjObject_poi
 0003:0015E87D       aObjObject_fac
 0003:0015E888       aObjObjects
 0003:0015E890       aObjQuick_lig
 0003:0015E89A       aObjFull_lights
 0003:0015E8A6       aObjNormals
 0003:0015E8AE       aObjObject_fa4
 0003:0015E8B9       aObjAnim_tmaps
 0003:0015E8C4       aObjTraffic_no
 0003:0015E8CF       aObjLight_comm
 0003:0015E8DA       aObjCol_vects_l
 0003:0015E8E6       aObjCol_vects_0
 0003:0015E8F0       aObjWalk_headers
 0003:0015E8FD       aObjWalk_items
 0003:0015E908       aObjCol_columns
 0003:0015E914       aNext_trafficD
 0003:0015E927       aDataTitFont_da
 0003:0015E939       aDataTitFont_ta
 0003:0015E94B       aDataNamFont_da
 0003:0015E95D       aDataNamFont_ta
 0003:0015E96F       aDataQotFont_da
 0003:0015E981       aDataQotFont_ta
 0003:0015E993       aOuttro_txt
 0003:0015E99E       aDataPeople_txt
 0003:0015E9AE       aEnd
 0003:0015E9B2       aEnd_0
 0003:0015E9B6       aDataOutroZ_smk
 0003:0015E9C7       aDataOutroS_smk
 0003:0015E9D8       aDataOutroZ_raw
 0003:0015E9E9       aDataOutroS_raw
 0003:0015E9FA       aQdataPal_pal_0
 0003:0015EA0C       aD_6
 0003:0015EA0F       aD_7
 0003:0015EA12       aD_8
 0003:0015EA15       aD_9
 0003:0015EA18       aD_10
 0003:0015EA1B       aQdataEquipCDbo
 0003:0015EA32       aQdataEquipCDbb
 0003:0015EA4A       aQdataEquipCDaD
 0003:0015EA63       aQdataEquipCDlD
 0003:0015EA7C       aQdataEquipCDbi
 0003:0015EA93       aQdataEquipCD_0
 0003:0015EAAB       aQdataEquipCD_1
 0003:0015EAC4       aQdataEquipCD_2
 0003:0015EADD       aQdataEquipCD_3
 0003:0015EAF5       aD_11
 0003:0015EAF8       aD_12
 0003:0015EAFB       aD_13
 0003:0015EAFE       aSCDb_dat
 0003:0015EB0B       aSCDbb_dat
 0003:0015EB19       aSCDaD_dat
 0003:0015EB28       aSCDlD_dat
 0003:0015EB37       a04x_0
 0003:0015EB3C       aD_14
 0003:0015EB3F       aS
 0003:0015EB42       aS_0
 0003:0015EB45       aS_1
 0003:0015EB48       aS_2
 0003:0015EB4B       aS_3
 0003:0015EB4E       aS_4
 0003:0015EB51       aS_5
 0003:0015EB54       aS_6
 0003:0015EB57       aS_7
 0003:0015EB5A       aD_15
 0003:0015EB5D       aD_16
 0003:0015EB60       aSoundSyncreds_
 0003:0015EB73       aSoundSound_dat
 0003:0015EB83       aSoundSound_d_0
 0003:0015EB93       aDIdDTypeDSampl
 0003:0015EBCD       aDIdDTypeDSam_0
 0003:0015EC00       aD_17
 0003:0015EC03       aD_18
 0003:0015EC06       aBreakoutEnteringLevel
 0003:0015EC1A       aS_8
 0003:0015EC1D       aBreakoutBadLuck
 0003:0015EC27       aBreakoutGameOver
 0003:0015EC31       aBreakoutCongratulation
 0003:0015EC41       aBreakoutBonusGameCompl
 0003:0015EC55       aBreakoutBonusItem
 0003:0015EC60       aBreakoutAwarded
 0003:0015EC68       aMarkIsGreat
 0003:0015EC76       aForAllWeapons
 0003:0015EC86       aBreakoutDestroyTheBric
 0003:0015EC99       aBreakoutFortification
 0003:0015ECA7       aBreakoutBullfrogForeve
 0003:0015ECB8       aBreakoutBricky
 0003:0015ECBF       aBreakoutStiffUpperLip
 0003:0015ECCF       aBreakoutRaindropsKeep_
 0003:0015ECE1       aBreakoutDownTheSpout
 0003:0015ECF0       aBreakoutUpTheTube
 0003:0015ECFC       aBreakoutEurocorp
 0003:0015ED05       aBreakoutTheBullfrogCha
 0003:0015ED1C       aPath
 0003:0015ED21       aRb
 0003:0015ED24       aErrorDecompres
 0003:0015ED3C       aD_19
 0003:0015ED40       aDebug_bf_audio
 0003:0015ED4F       aSoundDig_ini
 0003:0015ED5D       aSoundMdi_ini
 0003:0015ED6B       aSound_2
 0003:0015ED71       aSound_3
 0003:0015ED77       aSDig_ini
 0003:0015ED82       aSMdi_ini
 0003:0015ED8D       aBf1MaD
 0003:0015ED9D       aBf2SaD
 0003:0015EDAD       aBf54MaD
 0003:0015EDBD       aBf55SaD
 0003:0015EDCD       aBf56MusicDrive
 0003:0015EDE7       aBf57SoundDrive
 0003:0015EE04       aBf42LoadSoundB
 0003:0015EE1F       aBf43LoadSoundB
 0003:0015EE51       aBf44LoadSoundB
 0003:0015EE84       aBf45LoadSoundB
 0003:0015EEA5       aBf46LoadSoundB
 0003:0015EED5       aBf47LoadSoundB
 0003:0015EF0C       aBf47LoadSoun_0
 0003:0015EF3D       aBf47LoadSoun_1
 0003:0015EF74       aBf47LoadSoun_2
 0003:0015EFA6       aSSound_dat
 0003:0015EFB3       aSoundDataSizeD
 0003:0015EFCC       aBf48LoadMusicB
 0003:0015EFE7       aBf49LoadMusicB
 0003:0015F019       aBf50LoadMusicB
 0003:0015F04C       aBf51LoadMusicB
 0003:0015F06D       aBf52LoadMusicB
 0003:0015F09D       aBf53LoadMusicB
 0003:0015F0D4       aBf53LoadMusi_0
 0003:0015F105       aBf53LoadMusi_1
 0003:0015F13F       aSMusic_dat
 0003:0015F14C       aErrorAllocatio
 0003:0015F163       aPressReturnT_0
 0003:0015F17D       aErrorFileS_
 0003:0015F18E       aPressReturnToC
 0003:0015F1A8       aVesa
 0003:0015F1B0       aSpacetecCopyrght
 0003:0015F54B       aSpaceballName
 0003:0015F565       a1d
 0003:0015F569       a0x
 0003:0015F579       aC_0
 0003:0015F580       aVipport
 0003:0015F588       aVfx1Cyberpuck
 0003:0015F598       aBu
 0003:0015F59B       aBu_0
 0003:0015F59E       aBu_1
 0003:0015F5A1       aBu_2
 0003:0015F5A4       aBuxxX
 0003:0015F5AB       a1_0
 0003:0015F5AF       aStation
 0003:0015F5B7       aNone
 0003:0015F5BC       aSStationNoD
 0003:0015F5CE       aRadicaReturned
 0003:0015F5E9       aQuittingRadica
 0003:0015F5FA       aSendingMyJoinP
 0003:0015F627       aSendingMyJoi_0
 0003:0015F654       aYippeyImInTheG
 0003:0015F676       aRead
 0003:0015F67C       aCheck
 0003:0015F683       aCheckDone
 0003:0015F68F       aBadReadX
 0003:0015F69C       aDoneRead
 0003:0015F6A7       aSendingHostInf
 0003:0015F6D1       aSendingExchang
 0003:0015F6FF       aResendingPacke
 0003:0015F72C       aMaxPlayersDNoP
 0003:0015F74A       aPlayerSWishesT
 0003:0015F764       aStationNoD
 0003:0015F773       aSessionNameS
 0003:0015F784       aPlayerNoD
 0003:0015F794       aTimeout
 0003:0015F7A0       aRt
 0003:0015F7A3       aT
 0003:0015F7A5       aP
 0003:0015F7AB       aC_1
 0003:0015F7AE       aRing
 0003:0015F7B3       aRing_0
 0003:0015F7B8       aAta
 0003:0015F7BC       aAta_0
 0003:0015F7C0       aS_22
 0003:0015F7C4       modem_str_end
 0003:0015F7C8       aError_log
 0003:0015F7D2       aError
 0003:0015F7DC       aSb16_dig
 0003:0015F7E8       aSbpro_dig
 0003:0015F7F4       aSblaster_dig
 0003:0015F804       aBf3InitSound
 0003:0015F817       aBf4DefaultSoun
 0003:0015F838       aBf5NoSamplesRe
 0003:0015F864       aBf6NoSamplesRe
 0003:0015F883       aMdsound
 0003:0015F88B       aBf8MdsoundEnvi
 0003:0015F8AE       aSXDDD
 0003:0015F8BD       aBf9MdsoundEnvi
 0003:0015F8F6       aNone_0
 0003:0015F8FB       aS_9
 0003:0015F8FE       aBf10MdsoundEnv
 0003:0015F937       aBf11SearchForD
 0003:0015F95E       aNone_1
 0003:0015F963       aBf12UserReques
 0003:0015F991       aBf13Dig_iniDri
 0003:0015F9BE       aNone_2
 0003:0015F9C3       aBf14Dig_iniDri
 0003:0015F9EA       aNone_3
 0003:0015F9EF       aBf15SearchForD
 0003:0015FA13       aBf16AllDigDriv
 0003:0015FA47       aBf18DetermineS
 0003:0015FA71       aBf19Loadsounds
 0003:0015FA8D       aBf20CannotAllo
 0003:0015FAB9       aNone_4
 0003:0015FABE       aBf24InitSoundC
 0003:0015FADB       aBf19D
 0003:0015FAE5       aNoSound_dat
 0003:0015FAF6       aCannotAllocate
 0003:0015FB0A       aNotPresentInSo
 0003:0015FB27       aAllocationSucc
 0003:0015FB44       aBf25InitMusic
 0003:0015FB57       aSSample
 0003:0015FB61       aS_ad
 0003:0015FB67       aBf26Sample_adN
 0003:0015FB83       aS_opl
 0003:0015FB8A       aBf27Sample_opl
 0003:0015FBA7       aMdmusic
 0003:0015FBAF       aBf29MdmusicEnv
 0003:0015FBD2       aSXDDD_0
 0003:0015FBE1       aBf30MdmusicEnv
 0003:0015FC1A       aBf31MdmusicEnv
 0003:0015FC53       aS_10
 0003:0015FC56       aBf32SearchForM
 0003:0015FC7A       aNone_5
 0003:0015FC7F       aBf33UserReques
 0003:0015FCAA       aBf34Mdi_iniDri
 0003:0015FCD7       aBf35Mdi_iniDri
 0003:0015FD04       aBf36SearchForM
 0003:0015FD28       aBf37AllMusicDr
 0003:0015FD5E       aAdlib_mdi
 0003:0015FD68       aF_0
 0003:0015FD6A       aAdlibg_mdi
 0003:0015FD75       aF_1
 0003:0015FD77       aOpl3_mdi
 0003:0015FD80       aF_2
 0003:0015FD82       aPas_mdi
 0003:0015FD8A       aF_3
 0003:0015FD8C       aPasplus_mdi
 0003:0015FD98       aF_4
 0003:0015FD9A       aSblaster_mdi
 0003:0015FDA7       aF_5
 0003:0015FDA9       aSbpro1_mdi
 0003:0015FDB4       aF_6
 0003:0015FDB6       aSbpro2_mdi
 0003:0015FDC1       aF_7
 0003:0015FDC3       aEsfm_mdi
 0003:0015FDCC       aF_8
 0003:0015FDCE       aSbawe32_mdi
 0003:0015FDDA       aW_0
 0003:0015FDDC       aG_4
 0003:0015FDDE       aBf38Awe32Sound
 0003:0015FE00       aBf38Awe32Sou_0
 0003:0015FE1F       aMpu401_mdi
 0003:0015FE2A       aG
 0003:0015FE2C       aSndscape_mdi
 0003:0015FE39       aG_0
 0003:0015FE3B       aUltra_mdi
 0003:0015FE45       aG_1
 0003:0015FE47       aMt32mpu_mdi
 0003:0015FE53       aR
 0003:0015FE55       aG_2
 0003:0015FE59       aBf39MusicDrive
 0003:0015FE81       aBf40MusicSBank
 0003:0015FEA0       aW
 0003:0015FEA2       aNotPresentInMu
 0003:0015FEBF       aG_3
 0003:0015FEC1       aBf40aMusicSBan
 0003:0015FEE1       aNoMusic_dat
 0003:0015FEF2       aCannotAlloca_0
 0003:0015FF06       aNotPresentIn_0
 0003:0015FF23       aAllocationSu_0
 0003:0015FF3D       aBf40LoadmusicD
 0003:0015FF58       aBf41InitMusicC
 0003:0015FF78       aBf100CannotAll
 0003:0015FFAC       aBf100CannotA_0
 0003:0015FFDF       aBf100UnknownSt
 0003:00160008       aBf101CannotOpenFile
 0003:00160025       aBf101CannotOpe
 0003:00160042       aBf103Oversized
 0003:00160068       aGotAdpcmBlock
 0003:00160078       aPanPositionDPa
 0003:001600B0       aSS_5
 0003:001600B5       aSS_6
 0003:001600BA       a__0
 0003:001600BC       a__
 0003:001600BF       aSS_7
 0003:001600C5       aSS_8
 0003:001600CA       a__1
 0003:001600CE       aD_57
 0003:001600D2       aTimeBtwReads
 0003:001600F4       a_02u_02u_02u__
 0003:00160118       aAil_debug
 0003:00160124       aAil_sys_debug
 0003:00160134       aOpenFlags_WpT
 0003:00160138       aHorizLn
 0003:0016018C       aAilVarsion
 0003:00160194       aAilFullName
 0003:001601DC       aAilStartTime
 0003:001601EC       aHorizLn2
 0003:00160240       aAil_startup
 0003:00160250       aAil_shutdown
 0003:00160260       aAil_set_prefer
 0003:0016027C       aAilResultD
 0003:0016028C       aAil_get_real_v
 0003:001602A8       aAilResult0xX
 0003:001602B8       aAil_set_real_v
 0003:001602D8       aAil_set_use16_
 0003:001602F8       aAil_restore_us
 0003:00160314       aAil_call_drive
 0003:0016033C       aAil_delayD
 0003:0016034C       aAil_api_read_i
 0003:00160368       aAilDriverS
 0003:00160378       aAilDeviceS
 0003:00160388       aAilIoX
 0003:00160398       aAilIrqD
 0003:001603A8       aAilDma_8D
 0003:001603B8       aAilDma_16D
 0003:001603C8       aAilResultU
 0003:001603D8       aAil_register_t
 0003:001603F4       aAil_set_time_1
 0003:00160410       aAil_set_timer_
 0003:00160430       aAil_set_time_0
 0003:00160450       aAil_set_time_2
 0003:00160470       aAil_interrupt_
 0003:0016048C       aAil_start_time
 0003:001604A4       aAil_start_all_
 0003:001604BC       aAil_stop_timer
 0003:001604D0       aAil_stop_all_t
 0003:001604E8       aAil_release_ti
 0003:00160508       aAil_release_al
 0003:00160524       aAil_get_io_env
 0003:00160544       aAil_install_dr
 0003:00160564       aAil_uninstal_1
 0003:00160580       aAil_install_di
 0003:0016059C       aAil_install__0
 0003:001605C4       aAil_uninstall_
 0003:001605E4       aAil_allocate_s
 0003:00160608       aAil_allocate_f
 0003:00160630       aAil_release_sa
 0003:00160654       aAil_init_sampl
 0003:0016066C       aAil_set_sample
 0003:00160690       aAil_set_samp_5
 0003:001606B8       aAil_set_samp_6
 0003:001606DC       aAil_start_samp
 0003:001606F4       aAil_stop_sampl
 0003:0016070C       aAil_resume_sam
 0003:00160728       aAil_end_sample
 0003:00160740       aAil_set_samp_0
 0003:00160768       aAil_set_samp_1
 0003:00160788       aAil_set_samp_2
 0003:001607A8       aAil_set_samp_3
 0003:001607CC       aAil_sample_sta
 0003:001607E8       aAil_sample_pla
 0003:00160808       aAil_sample_vol
 0003:00160824       aAil_sample_pan
 0003:0016083C       aAil_sample_loo
 0003:0016085C       aAil_set_digita
 0003:00160884       aAil_digital_ma
 0003:001608A8       aAil_install__2
 0003:001608D4       aAil_minimum_sa
 0003:00160900       aAil_sample_buf
 0003:00160920       aAil_load_sampl
 0003:0016094C       aAil_set_samp_7
 0003:00160970       aAil_sample_pos
 0003:0016098C       aAil_register_s
 0003:001609B4       aAil_register_1
 0003:001609DC       aAil_register_e
 0003:00160A04       aAil_register_2
 0003:00160A2C       aAil_set_samp_4
 0003:00160A54       aAil_sample_use
 0003:00160A74       aAil_active_sam
 0003:00160A94       aAil_install_md
 0003:00160AB0       aAil_install__1
 0003:00160AD8       aAil_uninstal_0
 0003:00160AF8       aAil_allocate_0
 0003:00160B1C       aAil_release_se
 0003:00160B40       aAil_init_seque
 0003:00160B64       aAil_start_sequ
 0003:00160B80       aAil_stop_seque
 0003:00160B9C       aAil_resume_seq
 0003:00160BB8       aAil_end_sequen
 0003:00160BD0       aAil_set_sequen
 0003:00160BF4       aAil_set_sequ_0
 0003:00160C1C       aAil_set_sequ_1
 0003:00160C44       aAil_sequence_s
 0003:00160C60       aAil_sequence_t
 0003:00160C7C       aAil_sequence_v
 0003:00160C98       aAil_sequence_l
 0003:00160CB8       aAil_set_xmidi_
 0003:00160CE0       aAil_xmidi_mast
 0003:00160D00       aAil_install__3
 0003:00160D2C       aAil_mdi_driver
 0003:00160D48       aAil_set_gtl_fi
 0003:00160D6C       aAil_timbre_sta
 0003:00160D8C       aAil_install_ti
 0003:00160DAC       aAil_protect_ti
 0003:00160DCC       aAil_unprotect_
 0003:00160DF0       aAil_active_seq
 0003:00160E14       aAil_controller
 0003:00160E38       aAil_channel_no
 0003:00160E54       aAil_sequence_p
 0003:00160E7C       aResultDD
 0003:00160E8C       aAil_branch_ind
 0003:00160EA8       aAil_register_p
 0003:00160ED4       aAil_register_0
 0003:00160F00       aAil_register_3
 0003:00160F2C       aAil_register_b
 0003:00160F54       aAil_register_4
 0003:00160F7C       aAil_register_5
 0003:00160FA8       aAil_set_sequ_2
 0003:00160FD0       aAil_sequence_u
 0003:00160FF4       aAil_register_i
 0003:00161018       aAil_lock_chann
 0003:00161030       aAil_release_ch
 0003:00161050       aAil_map_sequen
 0003:00161078       aAil_true_seque
 0003:0016109C       aAil_send_chann
 0003:001610D8       aAil_send_sysex
 0003:001610FC       aAil_create_wav
 0003:0016112C       aAil_destroy_wa
 0003:00161150       aCdError
 0003:0016115C       aCannotAlloca_1
 0003:00161178       aNoCdDriveOrMsc
 0003:0016119D       aCdErrorS
 0003:001611AB       aCouldNotAlloca
 0003:001611D1       aCdOk
 0003:001611D8       aNoDaTracksToPl
 0003:001611EE       aCdHeadAt02dm02
 0003:0016121D       aCdErrorD
 0003:0016122B       aCdErrorD_0
 0003:00161239       aWriteProtectVi
 0003:00161251       aUnknownUnit
 0003:0016125E       aDriveNotReady
 0003:0016126E       aUnknownCommand
 0003:0016127E       aCrcError
 0003:00161288       aBadDriveReques
 0003:001612AB       aSeekError
 0003:001612B6       aUnknownMedia
 0003:001612C4       aSectorNotFound
 0003:001612D5       aPrinterOutOfPa
 0003:001612EA       aWriteFault
 0003:001612F6       aReadFault
 0003:00161301       aGeneralFailure
 0003:00161311       aReserved
 0003:0016131A       aReserved_0
 0003:00161323       aInvalidDiskCha
 0003:00161338       aFloatingPointS
 0003:0016135C       aUndefinedError
 0003:0016136C       aRadicaNotPrope
 0003:0016138C       aBadParallelPor
 0003:001613A8       aMissingParalle
 0003:001613C4       aParallelPortIr
 0003:001613E0       aOtherComputerS
 0003:001613F8       aHeartbeatError
 0003:00161408       aCableTooLongOr
 0003:00161424       aOtherComputerI
 0003:00161440       aCollisionOnOth
 0003:0016145C       aOtherTransmitt
 0003:00161478       aLostAPacket
 0003:00161488       aTooFastTransmi
 0003:001614A0       aFalseAlarm
 0003:001614AC       aTransmitterCan
 0003:001614C4       aOtherComputerN
 0003:001614E4       aOtherComputerH
 0003:00161504       aCollisionOnThi
 0003:00161520       aOtherReceiverH
 0003:00161538       aNetworkOverloa
 0003:0016154C       aCannotGetTheNe
 0003:00161564       aTransmitWhileR
 0003:00161580       aUnexpectedRetr
 0003:0016159C       aNetworkBusy
 0003:001615AC       aUserAborted
 0003:001615BC       aRev0_08f
 0003:001615C8       aUndefinedConst
 0003:001615F4       aUndefinedMembe
 0003:00161630       aGettingHeaderB
 0003:00161645       aResendingD
 0003:00161653       aResendingDelta
 0003:00161667       aStartingExchan
 0003:00161680       aCompletedExcha
 0003:001616A4       aTrue
 0003:001616AA       aFalse
 0003:001616B1       aTxData
 0003:001616BB       a02x
 0003:001616C3       a02x_0
 0003:001616C9       aRxData
 0003:001616D3       a02x_1
 0003:001616DB       aStateChangeWai
 0003:001616FC       aTrue_0
 0003:00161701       aFalse_0
 0003:00161707       aWaiting_for_da
 0003:0016171D       aTrue_1
 0003:00161723       aFalse_1
 0003:0016172A       aSingleErrorDet
 0003:00161752       aDoubleErrorDet
 0003:0016177C       aTz
 0003:00161786       aCreated
 0003:0016178E       aAppended
 0003:00161797       aLogS
 0003:0016179E       a@02d02d02d
 0003:001617B3       a@
 0003:001617B8       aSD02dD
 0003:001617C9       a02d02dD
 0003:001617D7       a02d02d02d
 0003:001617E8       a?
 0003:001617EB       aExe
 0003:001617EF       aCom
 0003:001617F4       aLx
 0003:001617F8       aSbawe32_mdi_0
 0003:00161804       aW_2
 0003:00161806       aSS_sbk
 0003:00161810       aSbawe32_mdi_1
 0003:0016181C       str2
 0003:00161820       a0123456789abcdef
 0003:00161834       aRt_0
 0003:00161838       aDriver
 0003:00161840       aDevice
 0003:00161848       aIo_addr
 0003:00161850       aIrq
 0003:00161854       aDma_8_bit
 0003:00161860       aDma_16_bit
 0003:0016186C       aCorrupted_iniF
 0003:00161884       aInsufficientMe
 0003:001618B0       aInsufficientLo
 0003:001618CC       aAil3dig
 0003:001618D4       aAil3mdi
 0003:001618DC       aInvalidDriverT
 0003:001618F4       aOutOfDriverHan
 0003:0016190C       aOutOfTimerHand
 0003:00161924       aMinimumDmaBuff
 0003:00161950       aCouldNotAllo_0
 0003:00161978       a_digDriverRequ
 0003:00161990       aDigitalSoundHa
 0003:001619B4       aCouldNotAllo_1
 0003:001619D4       aCouldNotAllo_2
 0003:001619F8       aCouldNotAllo_3
 0003:00161A20       aOutOfTimerHa_0
 0003:00161A38       aSS_3
 0003:00161A40       aDriverFileNotF
 0003:00161A58       aUnableToOpenFi
 0003:00161A78       aOutOfSampleHan
 0003:00161A90       aFmt
 0003:00161A98       aData
 0003:00161AA0       aCreative
 0003:00161AAC       aWave
 0003:00161AB4       aUnrecognized_0
 0003:00161ADC       aInvalidOrMis_0
 0003:00161AFC       aUnrecognizedDi
 0003:00161B24       aInvalidOrMissi
 0003:00161B44       aForm
 0003:00161B4C       aCat
 0003:00161B54       aXmid
 0003:00161B5C       aInternalNoteQu
 0003:00161B7C       aCouldNotAllo_4
 0003:00161BA4       a_mdiDriverRequ
 0003:00161BBC       aXmidiSoundHard
 0003:00161BDC       aCouldNotInitia
 0003:00161C08       aCouldNotAllo_5
 0003:00161C30       aOutOfTimerHa_1
 0003:00161C48       aSS_4
 0003:00161C50       aDriverFileNo_0
 0003:00161C68       aUnableToOpen_0
 0003:00161C88       aTandy3VoiceMus
 0003:00161C9C       aIbmInternalSpe
 0003:00161CB8       a_ad
 0003:00161CBC       a_opl
 0003:00161CC4       aOutOfSequenceH
 0003:00161CE0       aInvalidXmidiSe
 0003:00161CF8       aTimb
 0003:00161D00       aRbrn
 0003:00161D08       aEvnt
 0003:00161D10       aNoTimbresLoade
 0003:00161D24       aDriverCouldNot
 0003:00161D58       aDriverCouldN_0
 0003:00161D8C       aInsufficient_0
 0003:00161DB8       aNotEnoughMemor
 0003:00161DE8       aStackDataHasBe
 0003:00161E07       aViolationOfFun
 0003:00161E36       aThrowWhileTerm
 0003:00161E5F       aThrowDuringDes
 0003:00161EA1       aThrowWhileTe_0
 0003:00161ECA       aThrowDuringCon
 0003:00161EF2       aThrowDuringD_0
 0003:00161F21       aReThrowWhenNoE
 0003:00161F4C       aNoHandlerActiv
 0003:00161F76       aReThrowWhenN_0
 0003:00161FA1       aNoHandlerAct_0
 0003:00161FCB       aSystemExceptio
 0003:00161FF0       aNoMemoryLeftTo
 0003:0016201C       aAbnormalTermin
 0003:00162034       aReturnFromTerm
 0003:00162058       aReturnFromUnex
 0003:0016207C       _IsTable
 0003:001621E1       aFmamjjasondaeapauuuecoe
 0003:0016227E       __end_TI
 0003:00162280       _fade_table
 0003:00163280       outro_darken_color
 0003:00164A80       unknoise_tmap
 0003:00166280       _ghost_table
 0003:00176B7E       netgame_agent_pos_x
 0003:00176BBE       netgame_agent_pos_y
 0003:00176C00       playable_agents
 0003:00176C04       cryo_agents__FourPacks
 0003:00176CD4       unkn1_pos_x
 0003:00176CD8       unkn1_pos_y
 0003:00176CDC       unkn1_spr
 0003:00176CE0       x
 0003:00176CE4       y
 0003:00176CE8       swidth
 0003:00176CF0       dwidth
 0003:00176D50       yc
 0003:00176D90       p_thing
 0003:00176E3C       save_mortal_salt
 0003:00176E40       save_hashtbl_01
 0003:00176F20       save_hashtbl_02
 0003:00177008       save_hashtbl_03
 0003:001770F4       save_crypto_tables_state
 0003:001770F8       save_crypto_data_state
 0003:001770FC       save_hashtbl_verify_code
 0003:00177100       language_3str
 0003:00177104       packet_rec_fh
 0003:00177108       smack_malloc_used_tot
 0003:0017712D       mission_result
 0003:00177130       game_speed
 0003:00177134       my_build_packet
 0003:00177138       mouser
 0003:00177740       navi2_unkn_counter
 0003:00177744       engine_mem_alloc_ptr
 0003:00177748       smack_malloc_mem
 0003:0017774C       unkn_mech_arr7
 0003:00177754       cd_drive
 0003:00177788       unkn_mech_var10
 0003:0017778C       unkn_mech_var11
 0003:00177798       gamep_unknval_10
 0003:0017779C       gamep_unknval_11
 0003:001777A0       gamep_unknval_12
 0003:001777A4       nav_stats__ThisTurn
 0003:001777A8       nav_stats__QThisTurn
 0003:001777AC       gamep_unknval_15
 0003:001777B0       gamep_unknval_16
 0003:001777C0       p_person
 0003:001777C8       gamep_unknval_01
 0003:001777CC       my_paths
 0003:0017EE8C       path_count
 0003:0017FA50       input_char
 0003:0017FD78       joy
 0003:001807D4       ingame__GameMode
 0003:001807D6       ingame__DisplayMode
 0003:001807DA       ingame__byte_1807DA
 0003:001807DB       ingame__CDTrack
 0003:001807DC       ingame__DangerTrack
 0003:001807DD       ingame__UseMultiMedia
 0003:001807DE       ingame__byte_1807DE
 0003:001807DF       ingame__byte_1807DF
 0003:001807E0       ingame__Scanner
 0003:00180C47       ingame__Credits
 0003:00180C4B       ingame__dword_180C4B
 0003:00180C4F       ingame__dword_180C4F
 0003:00180C51       ingame__MissionStatus
 0003:00180C53       ingame__Flags
 0003:00180C57       ingame__dword_180C57
 0003:00180C5B       ingame__draw_unknprop_01
 0003:00180C5D       ingame__word_180C5D
 0003:00180C7B       ingame__NextRocket
 0003:00180C7D       ingame__dword_180C7D
 0003:00180C7F       ingame__MyGroup
 0003:00180C81       ingame__CurrentMission
 0003:00180C84       ingame__DetailLevel
 0003:00180C85       ingame__UserZoom
 0003:00180C87       ingame__cmdln_param_a
 0003:00180C89       ingame__cmdln_param_w
 0003:00180C8B       ingame__word_180C8B
 0003:00180C91       ingame__dword_180C91
 0003:00180C95       ingame__TrackX
 0003:00180C97       ingame__TrackZ
 0003:00180C99       ingame__TrackThing
 0003:00180CA0       ingame__word_180CA0
 0003:00180CA3       ingame__PanelPermutation
 0003:00180CA4       ingame__TrenchcoatPreference
 0003:00180CA5       ingame__byte_180CA5
 0003:00180CA6       ingame__word_180CA6
 0003:00180CA8       ingame__word_180CA8
 0003:00180CAB       ingame__PalType
 0003:00180CAC       ingame__FlameCount
 0003:00180CAE       ingame__LastTmap
 0003:00180CAF       ingame__SoundThing
 0003:00180CB1       ingame__byte_180CB1
 0003:00180CB2       ingame__byte_180CB2
 0003:00180CB9       ingame__InNetGame_UNSURE
 0003:00180CBF       ingame__Cheats
 0003:00180CC1       ingame__CashAtStart
 0003:00180CC5       ingame__Expenditure
 0003:001810DA       brightness
 0003:00181181       login_control__State
 0003:00181184       login_control__Money
 0003:00181188       login_control__City
 0003:001811F2       unkn_flags_08
 0003:001816A4       objective_text
 0003:0018194C       ex_faces
 0003:0018D14C       shrapnel
 0003:0019014C       phwoar
 0003:0019714C       shrapnel_free
 0003:0019714E       phwoar_free
 0003:00197158       W?text_window_x1$nus
 0003:0019715A       W?text_window_y1$nus
 0003:0019715C       W?text_window_x2$nus
 0003:0019715E       W?text_window_y2$nus
 0003:00197224       prim_unknprop01
 0003:00197228       prim4_textures
 0003:0019722C       prim_face_textures
 0003:00197230       prim_object_points
 0003:00197234       prim_object_faces
 0003:00197238       prim_object_faces4
 0003:0019723C       prim_objects
 0003:00197242       unkn01_thing_list_head
 0003:00197440       same_type_head
 0003:00197484       traffic_nodes
 0003:00197488       mission_list
 0003:00199828       mission_status
 0003:0019AAE8       level_def__PlayableGroups
 0003:0019AB14       bul_starts
 0003:0019CA54       linear_vec_pal
 0003:0019CB54       fade_data
 0003:0019CBDC       W?pop1_sprites$n[]pn$TbSprite$$
 0003:0019CBE0       W?pop1_sprites_end$n[]pn$TbSprite$$
 0003:0019CBE4       W?pop1_data$n[]ul
 0003:0019CBE8       sprites_Icons0_0
 0003:0019CBEC       sprites_Icons0_0_end
 0003:0019CBF0       data
 0003:0019CBF4       unk3_sprites
 0003:0019CBF8       unk3_sprites_end
 0003:0019CBFC       unk3_sprites_data
 0003:0019CC00       unk1_sprites
 0003:0019CC04       unk1_sprites_end
 0003:0019CC08       unk1_sprites_data
 0003:0019CC1C       unk2_sprites
 0003:0019CC20       unk2_sprites_end
 0003:0019CC24       unk2_sprites_data
 0003:0019CC2C       W?m_spr_data$n[]ul
 0003:0019CC34       W?m_sprites$n[]pn$TbSprite$$
 0003:0019CC38       W?m_sprites_end$n[]pn$TbSprite$$
 0003:0019CC3C       frame
 0003:0019CC40       frame_end
 0003:0019CC4C       melement_ani
 0003:0019CC50       melement_ani_end
 0003:0019CC54       nstart_ani
 0003:0019CC58       nstart_ani_end
 0003:0019CC60       nsta_size
 0003:0019EC68       tnext_screen_point
 0003:0019EC6A       tnext_draw_item
 0003:0019EC6C       tnext_sort_sprite
 0003:0019EC6E       cmdln_param_d
 0003:0019EC71       game_perspective
 0003:0019EC72       unkn_flags_01
 0003:0019EC76       display_mode
 0003:0019EC7E       thing_count
 0003:0019EC80       things_used
 0003:0019EC82       sthings_empty_head
 0003:0019EC84       sthings_used_head
 0003:0019EC86       things_empty_head
 0003:0019EC88       things_used_head
 0003:0019EC8C       link__MapColListEmptyHead
 0003:0019EC8E       link__MapColVectEmptyHead
 0003:0019ECA4       war_flags
 0003:0019F198       group_actions
 0003:0019F430       mission_open
 0003:0019F494       mission_state
 0003:0019F50C       pktrec_mode
 0003:0019F50D       cmdln_pr_num
 0003:0019F510       anim_tmaps
 0003:0019F514       commands
 0003:0019F518       used_objectives
 0003:0019F51C       used_lvl_objectives
 0003:0019F520       level_miscs
 0003:0019F524       objectives
 0003:0019F528       col_vects
 0003:0019F52C       walk_headers
 0003:0019F530       col_vects_list
 0003:0019F534       walk_items
 0003:0019F538       user_heap
 0003:0019F53C       my_big_map
 0003:0019F540       screen_point_pool
 0003:0019F544       draw_list
 0003:0019F548       sort_sprites
 0003:0019F54C       sort_lines
 0003:0019F550       col_columns
 0003:0019F554       execute_commands
 0003:0019F738       need_draw_unk3
 0003:0019F73A       next_col_column
 0003:0019F73C       textwalk_data
 0003:0019FBB0       local_mats
 0003:001A09C0       floor_tiles
 0003:001A09C4       light_commands
 0003:001A09C8       normals
 0003:001A09CC       quick_lights
 0003:001A09D0       full_lights
 0003:001A09D4       textures
 0003:001A09D8       face_textures
 0003:001A09DC       things
 0003:001A09E0       sthings
 0003:001A09E4       object_points
 0003:001A09E8       object_faces
 0003:001A09EC       object_faces4
 0003:001A09F0       objects
 0003:001A09F4       special_object_faces
 0003:001A09F8       special_object_faces4
 0003:001A09FC       next_screen_point
 0003:001A09FE       next_draw_item
 0003:001A0A00       next_sort_sprite
 0003:001A0A02       next_sort_line
 0003:001A5828       p_current_sort_sprite
 0003:001A5830       p_current_draw_item
 0003:001A5838       mouse_map_y
 0003:001A5840       W?pointer_sprites$n[]pn$TbSprite$$
 0003:001A5844       W?pointer_sprites_end$n[]pn$TbSprite$$
 0003:001A5848       small_font
 0003:001A584C       W?small_font_end$n[]pn$TbSprite$$
 0003:001A5850       small2_font
 0003:001A5854       small2_font_end
 0003:001A5858       small_med_font
 0003:001A585C       small_med_font_end
 0003:001A5860       med_font
 0003:001A5864       med_font_end
 0003:001A5868       med2_font
 0003:001A586C       med2_font_end
 0003:001A5870       big_font
 0003:001A5874       big_font_end
 0003:001A5878       W?display_palette$npnuc
 0003:001A5880       W?gui_strings_data$npc
 0003:001A5888       gui_strings
 0003:001A62BC       W?pointer_data$n__ul
 0003:001A62C0       W?small_font_data$n[]ul
 0003:001A62C4       small2_font_data
 0003:001A62C8       small_med_font_data
 0003:001A62CC       med_font_data
 0003:001A62D0       med2_font_data
 0003:001A62D4       big_font_data
 0003:001A62D8       turns_delta
 0003:001A62DC       gameturn
 0003:001A62E0       players
 0003:001A7030       packets
 0003:001A71B0       local_player_no
 0003:001A71B1       W?exit_game$nuc
 0003:001A71B2       in_network_game
 0003:001A71B3       is_single_game
 0003:001A71B4       cmdln_param_tf
 0003:001A71B5       cmdln_param_bcg
 0003:001A71B8       colour_lookup
 0003:001A71C3       unkn_changing_color_1
 0003:001A71C4       unkn_changing_color_2
 0003:001A72BC       bangdetail__circle
 0003:001A72DC       bangdetail__sphere
 0003:001A730C       bangdetailmask
 0003:001A7310       palette_brightness
 0003:001A7318       prev_tick_time
 0003:001A731C       prev_gameturn
 0003:001A7320       curr_tick_time
 0003:001A7324       active_flags_general_unkn01
 0003:001A7328       sprite_over_16x16
 0003:001A732C       navi2_unkn_counter_max
 0003:001AA26C       unkn_changing_color_counter1
 0003:001AA278       buf
 0003:001AA288       unkn_buffer_04
 0003:001AA28C       unkn_buffer_05
 0003:001AA2F8       ingame__Tmaps
 0003:001AA3B8       unkn01_downcount
 0003:001AA3BC       unkn01_pos_x
 0003:001AA3C0       unkn01_pos_y
 0003:001AA3C4       redo_scanner
 0003:001AA3C5       y1
 0003:001AA5E8       minimum_explode_size
 0003:001AA5EC       minimum_explode_and
 0003:001AA5F0       minimum_explode_depth
 0003:001AA688       palette
 0003:001AA988       palette_data
 0003:001AAA8C       animations
 0003:001AAB84       stored_l3d_next_object
 0003:001AAB88       stored_l3d_next_object_face
 0003:001AAB8C       stored_l3d_next_object_face4
 0003:001AAB90       stored_l3d_next_object_point
 0003:001AAB94       stored_l3d_next_normal
 0003:001AAB98       stored_l3d_next_face_texture
 0003:001AAB9C       stored_l3d_next_floor_texture
 0003:001AABA0       stored_l3d_next_local_mat
 0003:001AABA4       stored_level3d_inuse
 0003:001AABA8       stored_g3d_next_object
 0003:001AABAC       stored_g3d_next_object_face
 0003:001AABB0       stored_g3d_next_object_face4
 0003:001AABB4       stored_g3d_next_object_point
 0003:001AABB8       stored_g3d_next_normal
 0003:001AABBC       stored_g3d_next_face_texture
 0003:001AABC0       stored_g3d_next_floor_texture
 0003:001AABC4       stored_g3d_next_local_mat
 0003:001AABC8       stored_global3d_inuse
 0003:001AABCC       things_init_times
 0003:001AABD2       unkn01_thing_idx
 0003:001AABE0       triangulation
 0003:001AAE38       tri_module_init
 0003:001AAE48       W?Ex$n[]l
 0003:001AAFD8       W?Ey$n[]l
 0003:001AB168       ixE
 0003:001AB16C       thin_wall_x
 0003:001AB170       thin_wall_y
 0003:001AB174       thin_wall_w
 0003:001AB178       thin_wall_h
 0003:001AB17C       tree_dad
 0003:001B2E7C       tree_val
 0003:001BAB7C       routeTags
 0003:001BCABC       W?tree_Ax8$nl
 0003:001BCAC0       W?tree_Ay8$nl
 0003:001BCAC4       W?tree_Bx8$nl
 0003:001BCAC8       W?tree_By8$nl
 0003:001BCACC       W?tree_altA$nl
 0003:001BCAD0       W?tree_altB$nl
 0003:001BCAD4       tree_triA
 0003:001BCAD8       tree_triB
 0003:001BCADC       tree_CentreDest
 0003:001BCAE0       tree_routelen
 0003:001BCAE4       tree_routecost
 0003:001BCAE8       tree_route
 0003:001BF9C8       W?route_bak$n[]l
 0003:001C28A8       fwd_path
 0003:001C30BC       heap
 0003:001C34C0       heap_end
 0003:001C34C4       W?dfs_node$n[]l
 0003:001C36C4       W?ix_dfs$nl
 0003:001C36C8       ix_EdgePoints
 0003:001C36CC       fringe_y
 0003:001C3ACC       fringe_x1
 0003:001C3AD0       fringe_y1
 0003:001C3AD4       fringe_x2
 0003:001C3AD8       fringe_y2
 0003:001C3ADC       fringe_map
 0003:001C42FC       crater_unkn_texture_flags
 0003:001C4304       unkstruct03_arr
 0003:001C4768       unkstruct03_first
 0003:001C476A       unkstruct03_last
 0003:001C4774       W?oinkey$:.0$:?KInt$f()vnuc
 0003:001C4778       buffered_keypresses
 0003:001C47B8       buffered_keypresses_end
 0003:001C47BC       buffered_keypresses_pos
 0003:001C47C0       W?OldInt$npf()v
 0003:001C47EC       net_unkn1_text
 0003:001C486C       textpos
 0003:001C48BC       loop_3
 0003:001C48F8       x2
 0003:001C48FC       y2
 0003:001C4920       x3
 0003:001C4973       research_completed
 0003:001C4974       cheat_research_weapon
 0003:001C4992       replay_intro_timer
 0003:001C4998       net_unkn2_text
 0003:001C49AC       unkn2_names
 0003:001C4A6C       unkn_gfx_option_2
 0003:001C4A6D       unkn_option_3
 0003:001C4A6E       unkn_option_4
 0003:001C4A74       hotspot_buffer
 0003:001C4A78       back_buffer
 0003:001C4A7D       change_screen
 0003:001C4A7E       restore_savegame
 0003:001C4A80       startscr_samplevol
 0003:001C4A82       startscr_musicvol
 0003:001C4A84       startscr_cdvolume
 0003:001C4A88       flic_mods
 0003:001C4A90       old_flic_mods
 0003:001C4A98       mod_draw_states
 0003:001C4A9C       new_current_drawing_mod
 0003:001C4A9D       current_drawing_mod
 0003:001C4AA4       old_screentype
 0003:001C4AA5       screentype
 0003:001C4AA8       mission_briefing_text
 0003:001C4AAC       weapon_text
 0003:001C4AB0       weapon_text_index
 0003:001C4B10       a3
 0003:001C4B14       memload
 0003:001C4B18       text
 0003:001C4B4C       options_title_text
 0003:001C4B60       map_editor
 0003:001C4B64       brief_netscan_cost_text
 0003:001C4B79       map_from_mission
 0003:001C4B7A       use_multimedia
 0003:001C4B7B       enter_game
 0003:001C4B7D       redraw_screen_flag
 0003:001C4B7E       net_unkn_pos_02
 0003:001C4B80       reload_background_flag
 0003:001C4B81       unkn_gfx_option_1
 0003:001C4B8C       equip_cost_text
 0003:001C4BA0       cryo_agents
 0003:001C4D25       selected_agent
 0003:001C4D3C       research
 0003:001C5298       refresh_equip_list
 0003:001C52B8       num_cities
 0003:001C52BC       cities
 0003:001C5744       unkn29_box_x
 0003:001C5746       unkn29_box_y
 0003:001C5A8C       unkn_stru_03
 0003:001C5B54       unkn_stru_03_count
 0003:001C5B58       network_players
 0003:001C5C38       group_types
 0003:001C5C40       unkstruct04_arr
 0003:001C6D49       net_host_player_no
 0003:001C6D4C       login_name
 0003:001C6DEC       background_type
 0003:001C6DF0       global_date
 0003:001C6DF8       research_curr_wep_date
 0003:001C6E00       research_curr_mod_date
 0003:001C6E0C       email_store
 0003:001C6E70       brief_store
 0003:001C6EA4       newmail_store
 0003:001C6F38       new_mail
 0003:001C6F3A       next_email
 0003:001C6F3C       next_brief
 0003:001C6F42       old_mission_brief
 0003:001C6F44       open_brief
 0003:001C6F46       next_ref
 0003:001C6F4A       edit_flag
 0003:001C6F4B       net_unkn_pos_01b
 0003:001C6F4C       save_game_buffer
 0003:001C6F50       heading_box
 0003:001C6F94       loading_INITIATING_box
 0003:001C6FD8       unkn13_SYSTEM_button
 0003:001C701C       unkn35_box
 0003:001C7060       unkn39_box
 0003:001C7078       unkn37_box
 0003:001C70BC       sysmnu_buttons
 0003:001C71D0       storage_LOAD_button
 0003:001C7200       storage_SAVE_button
 0003:001C7230       storage_NEW_MORTAL_button
 0003:001C7260       unkn34_box
 0003:001C7278       unkn04_boxes
 0003:001C72C0       unkn33_box
 0003:001C72D8       options_musictrk_buttons
 0003:001C7362       options_tensiontrk_buttons
 0003:001C73BE       options_mmedia_buttons
 0003:001C741C       options_gfx_buttons
 0003:001C76FC       net_protocol_option_button
 0003:001C772C       unkn32_box
 0003:001C7744       unkn36_box
 0003:001C7788       mission_text_box
 0003:001C77CC       unkn1_ACCEPT_button
 0003:001C77FC       unkn1_CANCEL_button
 0003:001C782C       brief_NETSCAN_button
 0003:001C785C       brief_NETSCAN_COST_box
 0003:001C7888       unkn30_box
 0003:001C78A0       unkn31_box
 0003:001C78B8       unkn29_box
 0003:001C78D0       unkn38_box
 0003:001C7914       unkn2_ACCEPT_button
 0003:001C7944       unkn2_CANCEL_button
 0003:001C7974       main_quit_button
 0003:001C79A4       main_login_button
 0003:001C79D4       pause_continue_button
 0003:001C7A04       pause_abort_button
 0003:001C7A34       main_map_editor_button
 0003:001C7A64       main_load_button
 0003:001C7A94       pause_unkn11_box
 0003:001C7AAC       pause_unkn12_box
 0003:001C7AC4       slots_box
 0003:001C7B08       equip_name_box
 0003:001C7B4C       weapon_slots
 0003:001C7B64       equip_list_box
 0003:001C7BA8       equip_display_box
 0003:001C7BEC       buy_equip_button
 0003:001C7C1C       unkn11_CANCEL_button
 0003:001C7C4C       equip_cost_box
 0003:001C7C77       unk11_buttons
 0003:001C7D4C       all_agents_button
 0003:001C7D7C       research_unkn21_box
 0003:001C7DC0       research_submit_button
 0003:001C7DF0       unkn12_WEAPONS_MODS_button
 0003:001C7E20       research_progress_button
 0003:001C7E64       research_unkn20_box
 0003:001C7E7C       research_list_buttons
 0003:001C7ED8       agent_list_box
 0003:001C7F1C       blokey_box
 0003:001C7F34       mod_list_box
 0003:001C7F78       net_INITIATE_button
 0003:001C7FA8       net_groups_LOGON_button
 0003:001C7FD8       unkn8_EJECT_button
 0003:001C8008       net_protocol_select_button
 0003:001C8038       net_unkn40_button
 0003:001C8068       net_SET2_button
 0003:001C8098       net_SET_button
 0003:001C80C8       net_unkn27
 0003:001C80E0       net_unkn26
 0003:001C80F8       net_unkn25
 0003:001C8110       net_unkn24
 0003:001C8128       net_unkn23
 0003:001C8140       net_unkn22
 0003:001C8158       net_unkn21
 0003:001C8170       net_unkn19_box
 0003:001C8188       unkn10_CALIBRATE_button
 0003:001C81B8       unkn10_SAVE_button
 0003:001C81E8       unkn10_CONTROLS_button
 0003:001C8218       save_slot_names
 0003:001C82FC       save_slot_base
 0003:001C8300       alert_text
 0003:001C83C8       text_buf_pos
 0003:001C83D0       cmdln_param_n
 0003:001C83D4       bez_edit
 0003:001C83DA       engine_mem_len
 0003:001C8406       unkn2_pos_x
 0003:001C8408       unkn2_pos_y
 0003:001C840A       unkn2_pos_z
 0003:001C8448       cmdln_param_current_map
 0003:001C844A       current_level
 0003:001C8454       spare_map_buffer
 0003:001C846A       signal_count
 0003:001C853A       VNAV_nearnodes
 0003:001C8544       VNAV_nodedists
 0003:001C8558       VNAV_route
 0003:001C855E       VNAV_route__route
 0003:001C8658       veh_ma_heap
 0003:001CAB60       scanner_next_key_no
 0003:001CAF88       SCANNER_map
 0003:001CB074       num
 0003:001CB088       SCANNER_data
 0003:001DB188       SCANNER_width
 0003:001DB18C       SCANNER_people_colours
 0003:001DB19C       SCANNER_keep_arcs
 0003:001DB1A8       SCANNER_arcpoint
 0003:001DB2E4       SCANNER_colour
 0003:001DB2EC       SCANNER_bbpoint
 0003:001DBAE4       SCANNER_bbpadds
 0003:001DBB6C       x1
 0003:001DC4DC       phwoar__child
 0003:001DC538       y3
 0003:001DC740       alert_OK_button
 0003:001DC770       alert_box
 0003:001DC788       show_alert
 0003:001DC78C       W?purple_draw_list$npn$PurpleDrawItem$$
 0003:001DC790       W?purple_draw_index$nus
 0003:001DC82C       unkn_mech_var8
 0003:001DC830       unkn_mech_var14
 0003:001DC834       unkn_mech_var16
 0003:001DC838       unkn_mech_var12
 0003:001DC83C       unkn_mech_var9
 0003:001DC840       unkn_mech_var17
 0003:001DC844       unkn_mech_var13
 0003:001DC848       unkn_mech_var15
 0003:001DC84C       unkn_mech_var18
 0003:001DC850       unkn_mech_arr3
 0003:001DC854       unkn_mech_arr4
 0003:001DC858       unkn_mech_arr5
 0003:001DC85C       unkn_mech_arr1
 0003:001DC860       unkn_mech_arr6
 0003:001DC864       unkn_mech_arr2
 0003:001DC868       mech_unkn_tile_x1
 0003:001DC86C       mech_unkn_tile_y1
 0003:001DC870       mech_unkn_tile_x2
 0003:001DC874       mech_unkn_tile_y2
 0003:001DC878       mech_unkn_tile_x3
 0003:001DC87C       mech_unkn_tile_y3
 0003:001DC8D0       g_nav_data
 0003:001DC8E0       z1
 0003:001DD0E4       g_fat_data
 0003:001DD0F4       g_fat_data__PathLength
 0003:001DD0F8       g_fat_data__WayPoints__x8
 0003:001DD0FC       g_fat_data__WayPoints__y8
 0003:001DD920       outro_unkn01
 0003:001DD924       people_credits_desc
 0003:001DDAB4       people_credits_groups
 0003:001DDB54       outro_text_s
 0003:001DDB58       outro_text_z
 0003:001DDB5C       outro_unkn02
 0003:001DDB60       outro_unkn03
 0003:001DDB64       people_groups_count
 0003:001DDC42       alert_textpos
 0003:001DDEC5       research_unkn_var_01
 0003:001DDEC6       current_frame
 0003:001DDEC8       a2
 0003:001DE068       ail_sample_ids
 0003:001E08C0       _lbMemoryAvailable
 0003:001E08D4       W?memory_blocks$n[]$mem_block$$
 0003:001E14D4       W?memory_arenas$n[]$mem_arena$$
 0003:001E26E4       ptr
 0003:001E2E44       hmhead
 0003:001E2E48       W?samples_in_bank$nl
 0003:001E2E4C       sample_table
 0003:001E2E50       W?setup$:.0$:?LbScreenIsModeAvailable$n($TbScreenMode$$)lnul
 0003:001E2E54       lbDisplay__PhysicalScreen
 0003:001E2E58       lbDisplay__WScreen
 0003:001E2E5C       lbDisplay__GlassMap
 0003:001E2E60       lbDisplay__FadeTable
 0003:001E2E64       lbDisplay__GraphicsWindowPtr
 0003:001E2E68       lbDisplay__MouseSprite
 0003:001E2E6C       lbDisplay__PhysicalScreenWidth
 0003:001E2E70       lbDisplay__PhysicalScreenHeight
 0003:001E2E74       lbDisplay__GraphicsScreenWidth
 0003:001E2E78       lbDisplay__GraphicsScreenHeight
 0003:001E2E7C       lbDisplay__GraphicsWindowX
 0003:001E2E80       lbDisplay__GraphicsWindowY
 0003:001E2E84       lbDisplay__GraphicsWindowWidth
 0003:001E2E88       lbDisplay__GraphicsWindowHeight
 0003:001E2E8C       lbDisplay__MouseWindowX
 0003:001E2E90       lbDisplay__MouseWindowY
 0003:001E2E94       lbDisplay__MouseWindowWidth
 0003:001E2E98       lbDisplay__MouseWindowHeight
 0003:001E2E9C       lbDisplay__MouseX
 0003:001E2EA0       lbDisplay__MouseY
 0003:001E2EA4       lbDisplay__MMouseX
 0003:001E2EA8       lbDisplay__MMouseY
 0003:001E2EAC       lbDisplay__RMouseX
 0003:001E2EB0       lbDisplay__RMouseY
 0003:001E2EB4       lbDisplay__DrawFlags
 0003:001E2EB6       lbDisplay__OldVideoMode
 0003:001E2EB8       lbDisplay__ScreenMode
 0003:001E2EBA       lbDisplay__VesaIsSetUp
 0003:001E2EBB       lbDisplay__LeftButton
 0003:001E2EBC       lbDisplay__RightButton
 0003:001E2EBD       lbDisplay__MiddleButton
 0003:001E2EBE       lbDisplay__MLeftButton
 0003:001E2EBF       lbDisplay__MRightButton
 0003:001E2EC0       lbDisplay__MMiddleButton
 0003:001E2EC1       lbDisplay__RLeftButton
 0003:001E2EC4       lbDisplay__FadeStep
 0003:001E2EC5       lbDisplay__DrawColour
 0003:001E2ECC       _lbSpriteReMapPtr
 0003:001E2ED0       __wint_thread_data
 0003:001E2F40       W?NetworkServicePtr$n$TbNetworkService$$
 0003:001E2F70       _lbExtendedKeyPress
 0003:001E2F74       _lbKeyOn
 0003:001E3074       _lbInkey
 0003:001E3075       lbInkeyFlags
 0003:001E3076       lbIInkey
 0003:001E3077       lbIInkeyFlags
 0003:001E3078       _lbShift
 0003:001E307C       W?old_mx$:.0$:?MouseHandler256$f(iii)vns
 0003:001E307E       W?old_my$:.0$:?MouseHandler256$f(iii)vns
 0003:001E3080       W?old_rx$:.0$:?MouseHandler256$f(iii)vnl
 0003:001E3084       W?old_ry$:.0$:?MouseHandler256$f(iii)vnl
 0003:001E3088       W?lbMouseInstalled$nul
 0003:001E308C       W?mbuffer$n$mouse_buffer$$
 0003:001E3090       mbuffer__Width
 0003:001E3094       mbuffer__Height
 0003:001E3098       mbuffer__Offset
 0003:001E309C       mbuffer__Buffer
 0003:001E409C       mbuffer__X
 0003:001E40A0       mbuffer__Y
 0003:001E40A4       mbuffer__XOffset
 0003:001E40A8       mbuffer__YOffset
 0003:001E40AC       W?minfo$n$mouse_info$$
 0003:001E40B4       minfo__XSpriteOffset
 0003:001E40B8       minfo__YSpriteOffset
 0003:001E40BC       minfo__Sprite
 0003:001E50BC       W?redraw_active_lock$nul
 0003:001E50C0       W?mouse_initialised$nul
 0003:001E50C4       W?mouse_mickey_x$nys
 0003:001E50C6       W?mouse_mickey_y$nys
 0003:001E50C8       W?mouse_dx$nyl
 0003:001E50CC       W?mouse_dy$nyl
 0003:001E50D0       W?mouse_pos_change_saved$nul
 0003:001E56D8       W?fade_started$nuc
 0003:001E5A2C       _smack_draw_callback
 0003:001E5B50       _SoundDataPath
 0003:001E5C84       sb16_mixer_set
 0003:001E5C88       W?CurrentCDTrack$nus
 0003:001E5C8C       W?TrackLength$nul
 0003:001E5C90       W?CDCountdown$nyul
 0003:001E5C94       W?CDTimerActive$nyuc
 0003:001E5C98       W?CDCount_handle$nl
 0003:001E5CA4       W?OldInt$npf()v_0
 0003:001E5CAC       W?sound_bank_size_info$n$SoundBankSizes$$
 0003:001E5CF4       W?largest_dat_size$nl
 0003:001E5CF8       W?largest_tab_size$nl
 0003:001E5CFC       W?full_sound_data_path$n[]a
 0003:001E5E8C       W?cur_flag$:.0$:?LbScreenSetDoubleBuffering$n(ul)ulnul
 0003:001E5E90       W?cur_flag$:.0$:?LbScreenSetWScreenInVideo$n(ul)ulnul
 0003:001E5E94       _lbScreenDirectAccessActive
 0003:001E5E9C       _lbVesaBytesPerLine
 0003:001E5E9E       _lbVesaHRes
 0003:001E5EA0       _lbVesaVRes
 0003:001E5EA4       _lbVesaData
 0003:001E5EA8       _lbVesaPage
 0003:001E5ED8       lbFontPtr
 0003:001E5F00       GRIP_Thunked
 0003:001E5F18       _realModePacket
 0003:001E5F1A       _SpwError
 0003:001E605A       vfx1_selector
 0003:001E6060       vfx1_pdosmem
 0003:001E6064       vfx1_system_cfg
 0003:001E6068       vfx1_vendor_cfg
 0003:001E60D0       vip_air_port
 0003:001E60D4       vip_csr_port
 0003:001E60DC       vfx1_htd_index
 0003:001E60E4       vfx1_pckt_count
 0003:001E60E8       vfx1_curr_pckt_idx
 0003:001E60F4       vfx1_cyberpuck
 0003:001E60F5       vendor_cfg
 0003:001E6300       W?start_time$:.0$:?ipx_update$n()vnul
 0003:001E6304       W?end_time$:.0$:?ipx_update$n()vnul
 0003:001E6308       _IPXHandler
 0003:001E630C       _IPXPlayerHeader
 0003:001E641C       _loggon_header
 0003:001E6449       W?player_loggon$nuc
 0003:001E644C       W?last_pkt_size$nl
 0003:001E6450       W?last_pkt$n[]uc
 0003:001E6850       W?ipx_send_packet_count$n[][8]ul
 0003:001E6950       W?ipx_got_player_send_packet_count$n[]ul
 0003:001E6970       W?datagram_backup$n[]$IPXDatagramBackup$$
 0003:001E7AA0       W?start_time$:.0$:?ipx_update_2$n()vnul
 0003:001E7ABE       str1
 0003:001E7AC7       W?end_time$:.0$:?ipx_update_2$n()vnul
 0003:001E7D9C       _IPXHandler_0
 0003:001E8128       W?start_time$:.0$:?run_exchange_func$n()lnul
 0003:001E812C       W?end_time$:.0$:?run_exchange_func$n()lnul
 0003:001E813C       W?ModemResponseString$n[]a
 0003:001E818C       W?ModemRequestString$n[]a
 0003:001E81DC       W?g_count$nul
 0003:001E85E8       W?error_log_initialised$nul
 0003:001E85EC       W?error_log$n$TbLog$$
 0003:001E86BC       _LowSoundVolPanAddr
 0003:001E86D0       _LowSoundPurgeAddr
 0003:001E86D4       _LowSoundCheckAddr
 0003:001E86D8       _LowSoundPlayedAddr
 0003:001E86DC       _LowSoundCloseAddr
 0003:001E86E0       _DebugAudio
 0003:001E86E4       _SoundProgressMessage
 0003:001E87E4       _sample_id
 0003:001E8B04       _end_sample_id
 0003:001E8B08       _SoundInstalled
 0003:001E8B09       _DisableLoadSounds
 0003:001E8B0A       _NumberOfSamples
 0003:001E8B0C       _Sfx
 0003:001E8B10       _EndSfxs
 0003:001E8B14       _SfxData
 0003:001E8B18       _SoundType
 0003:001E8B1C       _SoundDriver
 0003:001E8B20       _AILStartupAlreadyInitiated
 0003:001E8C4C       W?music_allocated$nl
 0003:001E8C50       _UseCurrentAwe32Soundfont
 0003:001E8C51       _MusicInstalled
 0003:001E8C54       _MusicType
 0003:001E8C5A       _CurrentTempo
 0003:001E8C5C       _SongCurrentlyPlaying
 0003:001E8C5E       _NumberOfSongs
 0003:001E8C60       _Music
 0003:001E8C64       _EndMusic
 0003:001E8C68       _MusicData
 0003:001E8C6C       _MusicDriver
 0003:001E8C70       _SongHandle
 0003:001E8C74       _DangerMusicFadeHandle
 0003:001E8C78       _Awe32SoundfontLoaded
 0003:001E8C79       _DisableLoadMusic
 0003:001E8C7A       W?midi_device_type$nuc
 0003:001E8C7B       _DisableDangerMusic
 0003:001E8C7C       _DangerMusicVolume
 0003:001E8C7D       _DangerMusicFadeActive
 0003:001E8C7E       _DangerMusicAble
 0003:001E8C84       _MusicInstallChoice
 0003:001E8E48       _StreamedSoundAble
 0003:001E8E49       _CDSpeed
 0003:001E8E4C       W?sample_handle$npn$_SAMPLE$$
 0003:001E8F50       W?sample_sign$nul
 0003:001E8F54       W?sample_format$nul
 0003:001E8F58       W?sample_rate$nus
 0003:001E8F5C       W?loop_count$nl
 0003:001E8F70       W?adpcm_file_open$nl
 0003:001E8F7C       W?stream_flags$nl
 0003:001E8F80       W?block_count$nl
 0003:001E8F84       W?position_offset$nl
 0003:001E8F88       W?pan_position$nl
 0003:001E8F8C       W?pan_rate$nl
 0003:001E8F90       W?pan_target$nl
 0003:001E8FA0       _file
 0003:001E8FA4       _AIL_debug
 0003:001E8FA8       _AIL_sys_debug
 0003:001E8FB4       _AIL_indent
 0003:001E90EC       W?current_da_track$nus
 0003:001E9104       W?track_start_sector$n[]ul
 0003:001E9290       W?track_lengths$n[]ul
 0003:001E941C       W?is_da_track$n[]uc
 0003:001E947F       W?cd_lowest_track$nuc
 0003:001E9480       W?cd_highest_track$nuc
 0003:001E9481       W?CD_Audio_Playing$nc
 0003:001E9484       W?cd_ioctli_low_mem$nul
 0003:001E9488       W?cd_data_low_mem$nul
 0003:001E948C       W?cd_total$nus
 0003:001E948E       W?cd_first$nus
 0003:001E9490       W?HeadLocationInfo$n$s_HeadLocationInfo$$
 0003:001E9498       W?DeviceStatusInfo$n$s_DeviceStatusInfo$$
 0003:001E94A0       W?AudioDiscInfo$n$s_AudioDiscInfo$$
 0003:001E94A8       W?AudioTrackInfo$n$s_AudioTrackInfo$$
 0003:001E94B0       W?AudioQChannelInfo$n$s_AudioQChannelInfo$$
 0003:001E94C8       W?IOCTLI$n$s_IOCTLI$$
 0003:001E94E4       W?SeekReq$n$s_SeekReq$$
 0003:001E94FC       W?PlayReq$n$s_PlayReq$$
 0003:001E9514       W?StopReq$n$s_StopReq$$
 0003:001E9524       W?ResumeReq$n$s_ResumeReq$$
 0003:001E9534       W?VolumeReq$n$s_IOCTLI$$
 0003:001E9550       W?control_real$nul
 0003:001E9554       W?control_selector$nul
 0003:001E9558       W?control_prot$npnuc
 0003:001E955C       ___ClosedStreams
 0003:001E9560       ___OpenStreams
 0003:001E9564       _clock_start
 0003:001E9568       W?sample_fade_handle$nl
 0003:001E956C       W?switch_off_sample_fade_timer$nyuc
 0003:001E956D       W?a_sample_is_fading$nyuc
 0003:001E956E       W?samples_currently_fading$nyuc
 0003:001E9570       W?current_sample_queue_count$nyul
 0003:001E9574       W?sample_queue_handle_initiated$nuc
 0003:001E9578       W?sample_queue_handle$npn$_SAMPLE$$
 0003:001EA47C       ___nheap_clean
 0003:001EA47D       ___fheap_clean
 0003:001EA480       _errno
 0003:001EA484       __doserrno
 0003:001ED5AC       ____Argc
 0003:001ED5B0       ____Argv
 0003:001ED5B4       splitprm_var1
 0003:001ED5B8       gmtime_var1
 0003:001ED5E0       _timeradjust
 0003:001ED5E4       _lasttimerread
 0003:001ED5E8       _SmackTimerDoneAddr
 0003:001ED5F0       W?sbkHandle$nl
 0003:001ED5F4       W?buffer$npfuc
 0003:001ED5FC       W?preset$npfuc
 0003:001ED604       W?data$npf$__38rogeSF_DATA$$
 0003:001ED624       W?no_samples$nl
 0003:001ED628       W?samples_per_block$nl
 0003:001ED62C       W?samples_processed$nl
 0003:001ED630       W?coeffs$n[]$ADPCMCoef$$
 0003:001ED870       loctm_var1
 0003:001ED894       asciitm_var1
 0003:001EDB2C       W?EAL_pr$n$REGS$$
 0003:001EDB48       W?EAL_rmr$n$realmode_registers$$
 0003:001EDB7A       W?EAL_realmode_segment$nus
 0004:001F0000       tabwidth
 0004:001F0004       font
 0004:001F0B54       scale_up

Program entry point at 0001:000D581C
