
 Start         Length     Name                   Class
 0001:00000000 0000A2000H cseg01                 CODE
 0002:00000000 00055DF80H dseg02                 STACK
 0003:00000000 000001000H dseg03                 DATA


  Address         Publics by Value

 0001:00010003       ___begtext
 0001:00010660       main_
 0001:00010CD0       unkn_draw_under_mouse_unused
 0001:00011440       init_engine
 0001:000114B0       process_engine_unk1
 0001:00011650       process_engine_unk2
 0001:00011740       __wcpp_1_unwind_leave_
 0001:00011750       draw_vect
 0001:000118F0       draw_mapwho_vect_len
 0001:00011B30       draw_e_graphic
 0001:00011C60       build_polygon_circle
 0001:00011DA0       unkn_process_trabsformed_point_1_unused
 0001:00011EA0       draw_pers_e_graphic
 0001:00012050       draw_thing_object
 0001:00012540       draw_rot_object2
 0001:000135A0       draw_object
 0001:000145E0       draw_editor_buildings_info
 0001:00014870       draw_editor_unkn05_info
 0001:00014A50       show_mapwho
 0001:000152A0       draw_hud
 0001:000153C0       process_engine_unk3
 0001:00017030       unkn_ani_process1_unused
 0001:0001A8E0       draw_screen
 0001:0001C2E0       transform_point
 0001:0001C4C0       draw_explode
 0001:0001C7E0       unkn_thing_paren_child_process_unused
 0001:0001D350       del_points
 0001:0001D7A0       del_face2
 0001:0001DE10       mapedit_mnu_compress_map
 0001:0001E8C0       del_points_0
 0001:0001EBF0       del_quad
 0001:0001ED10       del_face
 0001:0001EE10       del_texts
 0001:0001FD10       unkn_3d_obj_process_1_unused
 0001:00020160       unkn_3d_obj_process_2_unused
 0001:000205E0       mapedit_perare_map_file_list
 0001:00020660       mapedit_perare_level_file_list
 0001:000206F0       draw_map_file_names
 0001:00020980       draw_level_file_names
 0001:00020BC0       load_level_files_UNUSED
 0001:00021240       load_mission_file
 0001:00021330       save_mission_file
 0001:000213E0       save_level_file
 0001:00021D70       load_texture_map
 0001:00021E00       save_texture_map
 0001:00021E80       load_map_file
 0001:00022800       save_map_file_UNUSED
 0001:00022E20       save_map_file_psx_UNUSED
 0001:000258A0       net_unkn_check_1
 0001:000258F0       LbGhostTableGenerate_
 0001:00025A60       net_setup
 0001:00025B10       packet_rec_start_save
 0001:00025B60       packet_rec_start_load
 0001:00025BC0       PacketRecord_Close
 0001:00025BD0       PacketRecord_Write
 0001:00025C00       PacketRecord_Read
 0001:00025C30       W?setup_host$n()v
 0001:00025DD0       W?host_reset$n()v
 0001:00026E00       do_direct_control_inputs
 0001:00027200       load_packet
 0001:000276E0       draw_game
 0001:00027720       copy_wscreen
 0001:000277A0       W?game_process$n()v
 0001:00027D10       process_packets
 0001:00028090       LbPaletteFindColour_
 0001:00028470       game_setup_stuff
 0001:000288B0       clear_players_unused
 0001:00028930       update_unkn_changing_colors
 0001:00028980       setup_color_lookups
 0001:00028AA0       unkn2_enter_state_50
 0001:00028B90       show_black_screen
 0001:00028BE0       W?game_setup$n()v
 0001:00028D20       W?game_reset$n()l
 0001:00028D40       strings_prepare
 0001:00028D90       load_texturemaps
 0001:00028E10       free_texturemaps
 0001:00028E50       game_setup_3d
 0001:00028E60       texture_reset
 0001:000290E0       face_texture_index_unused
 0001:000291E0       floor_texture_index_unused
 0001:00029600       complare_objects_unused
 0001:0002A7A0       unkn_read_obj_3d_model
 0001:0002B230       unkn_dist07_compute_unused
 0001:0002B6B0       draw_text
 0001:0002B910       mapedit_do_undo
 0001:0002BA70       mapedit_do_undoundo
 0001:0002BBA0       mapedit_mnu_action_allowed
 0001:0002BC20       mapedit_mnu_function
 0001:0002C9F0       mapedit_mnu_compress_textures
 0001:0002CEC0       brush_count_textures_unused
 0001:0002D3F0       brush_copy
 0001:0002DB70       unkn5_largedt_func_unused
 0001:0002E370       unkn_brush_func_unused
 0001:0002E6D0       copy_object_from_existing
 0001:0002ECE0       copy_brush_objects_unused
 0001:0002F2D0       brush_remake_things_unused
 0001:0002F8E0       thing_node_unkn2_unused
 0001:0002FB50       thing_node_unkn_unused
 0001:0002FFF0       brush_save_or_load_UNUSED
 0001:000319C0       unkn_draw_box_2_unused
 0001:00031AD0       critical_action_input
 0001:00031BD0       mapedit_mouse_over_what
 0001:00031D20       unkn_mouse_over_5_and_more_process
 0001:00031E20       unk10_input_unkn_mouse
 0001:00031EF0       unkn_nullfunc4_unused
 0001:00031F00       mapedit_frame_unkn3_input_UNUSED
 0001:00034BD0       mapedit_unkn4_input_UNUSED
 0001:000350B0       mapedit_mnu_delete_all_lights
 0001:00035270       mapedit_draw_lights_options_UNUSED
 0001:00035810       unkn_draw_transformed_2_unused
 0001:00035890       mapedit_unkn07_light_test_input_UNUSED
 0001:00036360       unkn4_place_thing_input_UNUSED
 0001:00037320       unkn_find_face_index_unused
 0001:00037430       unkn_obj_under_mouse_unused
 0001:000382B0       mapedit_mnu_sync_textures
 0001:00038460       unkn_process_map_textures_unused
 0001:00038630       unkn_process_map_data_unused
 0001:00038B00       unkn_set_bigmap_texture_unused
 0001:00038C10       unkn_mouse_over_5_process_UNUSED
 0001:00039720       unkn_set_texture_tmap_unused
 0001:00039810       unkn_draw_transformed_rect_unused
 0001:00039D50       unkn_mouse_over_1_process_UNUSED
 0001:0003A250       tex_orientation
 0001:0003A560       unkn5_common1_input
 0001:0003A670       draw_unkn1_unused
 0001:0003A7D0       unkn01b_input
 0001:0003ADE0       unkn9_1234_input
 0001:0003BA30       unkn34_input
 0001:0003BFB0       setup_screen_redo_UNUSED
 0001:0003C030       save_textwalk
 0001:0003C0A0       load_textwalk
 0001:0003C110       unkn01a_input
 0001:0003C120       draw_purple_rect
 0001:0003C210       draw_mapedit_top_menu_UNUSED
 0001:0003C380       mapedit_topmnu_actions_UNUSED
 0001:0003CD40       unkn_lights_related_UNUSED
 0001:0003CEB0       mapedit_unkn6_input_UNUSED
 0001:0003D8A0       mapedit_mnu_reset_road_lights
 0001:0003DA60       mapedit_mnu_loadsa_texture
 0001:0003DAF0       mapedit_apply_ambient_inputs_UNUSED
 0001:0003DDC0       mapedit_mnu_del_ambient_light
 0001:0003DDE0       mapedit_mnu_recalc_lights
 0001:0003E4D0       engine_ctrl
 0001:0003E720       unkn5_input_UNUSED
 0001:0003E7C0       show_displaymd01_screen
 0001:0003E7F0       init_edit
 0001:0003F010       unkn12_texture_UNUSED
 0001:0003FDC0       editor_input_UNUSED
 0001:00040F60       set_unkn_attr_to_6_unused
 0001:00041840       unkn_shade_change_unused
 0001:000482E0       unkn10_input
 0001:0004DF50       unkn_map_set_unused
 0001:0004E300       apply_ambient_to_map
 0001:0004F040       unkn_points_faces_compute_unused
 0001:000503B0       unkn_compute_on_copy_3_unused
 0001:00050440       unkn_compute_on_copy_1_unused
 0001:000504D0       unkn_compute_on_copy_2_unused
 0001:00050680       unkn_position_related_compute_unused
 0001:00050B20       add_node_thing
 0001:00050C00       add_node_sthing
 0001:00050CD0       delete_node
 0001:00050DD0       delete_snode
 0001:00050ED0       move_mapwho
 0001:00051040       move_smapwho
 0001:00051670       find_near_point_in_object
 0001:00051860       something_hit_by_bullet
 0001:00051D40       check_for_other
 0001:00051F30       check_for_other_0
 0001:00052250       unkn_thing_val_set_unused
 0001:00052420       mapwho_unkn_shadows_disabled_func
 0001:00053E90       unkn_goto_point_unused
 0001:00054BC0       unkn_thing_frame_update_unused
 0001:00055720       unkn_thing_ani_update_unused
 0001:00055AD0       init_laser_elec
 0001:00056A30       unkn_thing_move_unused
 0001:000570A0       unkn_things_func1_unused
 0001:00058F40       unkn_add_fungus_unused
 0001:00059030       __wcpp_1_unwind_leave__1
 0001:00059040       process_things
 0001:000595E0       unkn_ani_func1_unused
 0001:0005A730       unkn_object_func4_unused
 0001:0005A9C0       unkn_object_coords_func3_unused
 0001:0005B3D0       unkn_object_coords_func2_unused
 0001:0005B5A0       unkn_object_coords_func1_unused
 0001:0005C470       unkn_process_things_3_unused
 0001:0005C5F0       unkn_draw_intersect2_unused
 0001:0005C8D0       unkn_draw_intersect1_unused
 0001:0005E8C0       __wcpp_1_unwind_leave__2
 0001:0005EC00       ql_mem_shift_right
 0001:0005ECD0       ql_mem_swap
 0001:0005ED40       ql_swap_group
 0001:0005EEE0       ql_swap_group_abs
 0001:0005EFD0       ql_swap_map_UNUSED
 0001:0005F4D0       generate_dattab_from_lbm
 0001:0005FC30       generate_dattab_psx_input_unused
 0001:00060070       ql_debug_check_memory
 0001:00060120       ql_debug_print_stats
 0001:00060B90       mapedit_unkn2_inputs_UNUSED
 0001:00060E20       __wcpp_1_unwind_leave__3
 0001:00062060       unkn_lights_processing_2_unused
 0001:00063210       unkn_lights_processing_1_unused
 0001:00064160       create_unkn_building_subtp27
 0001:00064D60       process_mouse_affects_view
 0001:00065010       process_view_rotation_inputs
 0001:000650F0       process_view_inputs
 0001:00065230       show_game_engine
 0001:00065250       save_range_to_file
 0001:000652A0       setup_nsta_nfra
 0001:000655A0       global_3d_store
 0001:0006A500       mapedit_thing_2_actions_UNUSED
 0001:0006A780       mapedit_mnu_delete_people
 0001:0006BB50       mapedit_thing_create_delete_actions_UNUSED
 0001:0006C280       unkn18b_input
 0001:0006D7B0       get_active_ed_menu_item
 0001:0006D8B0       unkn0_shift_on_mouse
 0001:0006DAF0       unkn1_shift_on_mouse
 0001:0006DC90       unkn2_shift_on_mouse
 0001:0006DE30       unkn3_shift_on_mouse_unused
 0001:00073970       thing_add_new_static
 0001:00074710       animate_explode
 0001:00074A90       build_polygon_circle_0
 0001:00075B90       unkn_noop7_sub
 0001:00076180       init_rocket
 0001:00076780       flic_func_147
 0001:000767D0       flic_frame
 0001:00076B70       flic_open_anim
 0001:00076BF0       flic_unkn4
 0001:00077020       unused_func_151
 0001:00077060       show_message
 0001:00077970       draw_line_transformed_at_ground
 0001:000781D0       draw_cross_transformed
 0001:00078280       draw_text_transformed_at_ground
 0001:00078390       transform_point_draw_unused
 0001:00078440       draw_unkn1_bar
 0001:00078560       draw_engine_unk3_last
 0001:00078A30       unused_func_163
 0001:00078F20       new_sim_person
 0001:00079650       init_things
 0001:00079850       get_new_sthing
 0001:00079930       remove_sthing
 0001:00079AD0       unkn_add_new_sthing
 0001:00079CC0       unkn_create_unused
 0001:0007F690       W?tri_new$n()l
 0001:0007F890       W?triangulation_initxy$n(llll)v
 0001:0007F8B0       W?triangulation_clear$n()v
 0001:0007FA30       W?save_triangulation$n()v
 0001:0007FA50       load_triangulation
 0001:0007FAD0       W?pointed_at8$n(llpnlpnl)l
 0001:0007FCA0       W?point_loop$n(ll)l
 0001:0007FD30       W?triangle_contains8$n(lll)l
 0001:0007FE90       W?triangle_brute_find8$n(ll)l
 0001:0007FEF0       W?triangle_find8$n(ll)l
 0001:00080220       W?point_find$n(llpnlpnl)l
 0001:00080340       W?edge_find$n(llllpnlpnl)l
 0001:00080500       W?triangle_findSE8$n(ll)l
 0001:000806E0       W?edge_rotateAC$n(ll)l
 0001:00080CF0       tri_split3
 0001:00080F90       tri_split2
 0001:00081180       W?edge_split$n(llll)v
 0001:00081230       insert_point
 0001:00081520       W?reduce_point$n(pnlpnl)l
 0001:00081600       make_3or4point
 0001:000816E0       W?edge_collapse$n(llll)v
 0001:000817F0       W?delete_4point$n(ll)l
 0001:00081C70       W?delete_3point$n(ll)l
 0001:00081EB0       delete_point
 0001:00081F60       W?triangle_reppoint8$n(lpnlpnl)v
 0001:00082050       W?fill_concave$n(lll)l
 0001:00082170       make_edge
 0001:000825A0       W?triangle_area1$n(l)l
 0001:00082660       W?triangulation_area1$n()l
 0001:00082850       W?fill_rectangle$n(lllluc)v
 0001:000829E0       thin_wall
 0001:00082B40       W?tri_set_rectangle$n(lllluc)v
 0001:00083180       edge_points
 0001:00083400       W?heap_add$n(l)v
 0001:00083600       W?heap_down$n(l)v
 0001:000837E0       W?cost_to_start$n(l)l
 0001:00083D30       W?ma_triangle_route$n(llpnl)l
 0001:00083EB0       fringe_init
 0001:00083F20       fringe_scan
 0001:00084000       fringe_get_rectangle
 0001:00084130       triangulate_area
 0001:000841E0       triangulate_map
 0001:00084370       route_to_path
 0001:00085530       W?gate_navigator_init8$n(pn$Pathway$$llllluc)v
 0001:00085660       W?route_through_gates$n(pn$Pathway$$pn$Path$$l)v
 0001:00085800       W?path_init8_wide$n(pn$Path$$llllluc)v
 0001:00086280       game_exit
 0001:000862C0       unkn_game_exit_input_UNUSED
 0001:00086360       __wcpp_1_unwind_leave__4
 0001:00086370       __wcpp_1_unwind_leave__5
 0001:00086380       unkn_log_related_1_unused
 0001:000863A0       log_message
 0001:000863C0       unkn_log_related_2_unused
 0001:000863E0       unkn_log_related_3_unused
 0001:00086400       bf_fatal
 0001:00086470       unkn_noop8_sub
 0001:00086B00       unkn_triangulation2_input_UNUSED
 0001:00086E10       __wcpp_1_unwind_leave__6
 0001:00086E20       __wcpp_1_unwind_leave__7
 0001:00086E30       __wcpp_1_unwind_leave__8
 0001:00086E40       unkn_triangulation_input_UNUSED
 0001:00086FB1       printf_
 0001:00086FE0       atoi
 0001:00087037       mem_putc_
 0001:0008704A       sprintf_
 0001:000878F0       LbNetworkReset_
 0001:00087B80       net_unkn_shutdows_func_01
 0001:00087DA0       LbMemoryReset_
 0001:00087DF0       do_int386b
 0001:00087E24       start
 0001:00087E9E       do_start
 0001:000880B5       __exit_
 0001:000880B7       __do_exit_with_msg__
 0001:000880F0       ___GETDSStart_
 0001:00088100       LbDrawLine_
 0001:00088620       LbSpriteDraw_
 0001:000898C0       memset_
 0001:000898D8       LbSqrL
 0001:00089960       LbDrawBox_
 0001:00089AB0       LbScreenSwap_
 0001:00089B40       LbFileOpen
 0001:00089B80       LbFileClose_
 0001:00089B90       LbKeyboardOpenClose_
 0001:00089BA0       LbKeyboard_
 0001:00089BC0       LbFileRead_
 0001:00089BD0       LbFileWrite_
 0001:00089BE0       LbFileLoadAt_
 0001:00089C50       LbFileSaveAt_
 0001:00089C80       LbPaletteFade_
 0001:00089E20       LbPaletteStopOpenFade_
 0001:00089E30       LbScreenSetup_
 0001:00089F80       LbPaletteSet_
 0001:00089FD0       LbSpriteSetup_
 0001:00089FF0       W?KInt$f()v_1
 0001:0008A100       LbIKeyboardOpen_
 0001:0008A150       LbIKeyboardClose_
 0001:0008A7C0       restore_area_under_mouse
 0001:0008A890       LbMousePlace2_
 0001:0008AEB0       LbMousePlace_
 0001:0008B090       LbMouseRemove2_
 0001:0008B0A0       LbMouseRemove_
 0001:0008B0B0       LbMouseChangeSpriteOffset_
 0001:0008B0C0       W?MouseHandler256$f(iii)v
 0001:0008B200       LbMouseChangeSprite_
 0001:0008B370       LbMouseSetup_
 0001:0008B510       LbMouseReset_
 0001:0008B5E0       mouse_set_bounds
 0001:0008B6B0       LbDataLoadAll_
 0001:0008B740       SetSoundDataPath
 0001:0008B800       InitSoundAndMusic_
 0001:0008BA20       W?reset_SB16_volumes$n()v
 0001:0008BAB0       cb_get_trigger_info
 0001:0008BB40       StartMusic_
 0001:0008BD90       SetMusicMasterVolume_
 0001:0008BDE0       SetSoundMasterVolume_
 0001:0008BE30       FreeAudio_
 0001:0008BE50       LbSpriteReset_
 0001:0008BE70       LbDataFreeAll_
 0001:0008BEA0       LbScreenReset_
 0001:0008BEC7       __open_flags_
 0001:0008BF7B       __doopen_
 0001:0008C043       _fsopen_
 0001:0008C05E       fopen_
 0001:0008C068       close_file_
 0001:0008C0D0       freopen_
 0001:0008C0F4       fputc_
 0001:0008C198       fclose_
 0001:0008C1C7       __shutdown_stream_
 0001:0008C1DC       __hex_
 0001:0008C1E8       __MkTmpFile_
 0001:0008C251       __doclose_
 0001:0008C2DA       unknown_libname_2
 0001:0008C2F7       unknown_libname_3
 0001:0008C313       unknown_libname_4
 0001:0008C3B4       j___clock_
 0001:0008C3C0       LbFileSeek_
 0001:0008C3D0       LbDataLoad_
 0001:0008C490       LbMemoryFree_
 0001:0008C4E0       W?delete_arena$n(pn$mem_arena$$)v
 0001:0008C530       LbVesaGetGran_
 0001:0008C640       LbVesaSetMode_
 0001:0008C6A0       LbVesaSetPage_
 0001:0008C700       LbVesaGetInfo_
 0001:0008C7D0       LbVesaIsModeAvailable_
 0001:0008C829       cget_file_
 0001:0008C877       uncget_file_
 0001:0008C87F       vfscanf_
 0001:0008C8A6       fscanf_
 0001:0008C8D0       strcmp_
 0001:0008C972       __CHP
 0001:0008C990       j___sys_init_387_emulator
 0001:0008C995       j___sys_fini_387_emulator
 0001:0008CAF0       DangerMusicFadeSwitch
 0001:0008CC00       SetSampleTempo
 0001:0008CC50       SetSampleTempoNormal
 0001:0008CC9C       __null_int23_exit_
 0001:0008CC9D       exit_
 0001:0008CCB5       _exit_
 0001:0008CCD0       unkn_alloc_mem
 0001:0008CD60       W?split_arena$n(pn$mem_arena$$ul)uc
 0001:0008CDDC       draw_top_menu
 0001:0008D640       W?cbfadesample$n(ul)v
 0001:0008D800       FadeSample_
 0001:0008D920       StopAllSampleFadeTimers_
 0001:0008D982       toupper_
 0001:0008D990       file_putc_
 0001:0008D9A1       __fprtf_
 0001:0008DA26       __prtf_
 0001:0008DCA7       getprintspecs_
 0001:0008DDDA       evalflags_
 0001:0008DE35       far_strlen_
 0001:0008DE59       far_other_strlen_
 0001:0008DE7C       fmt4hex_
 0001:0008DEDD       FixedPoint_Format_
 0001:0008DFB8       float_format_
 0001:0008DFBF       formstring_
 0001:0008E408       zupstr_
 0001:0008E420       _dos_getvect_
 0001:0008E454       segread_
 0001:0008E47C       int386x_
 0001:0008E495       system_
 0001:0008E500       LbMemoryAlloc_
 0001:0008E590       LbMemorySetup_
 0001:0008E7F0       LbMemoryCheck_
 0001:0008E8F0       do_int386
 0001:0008E940       _nfree_
 0001:0008E99E       int386_
 0001:0008E9B9       __CMain
 0001:0008EA08       __InitRtns
 0001:0008EA53       __FiniRtns
 0001:0008EAA2       nullsub_4
 0001:0008EAA3       __Init_Argv_
 0001:0008EB60       _SplitParms_
 0001:0008EC50       __STOSB
 0001:0008EC87       __STOSD
 0001:0008EFF4       creat_
 0001:0008F001       setmode_
 0001:0008F0B9       j___close_
 0001:0008F0BE       open_
 0001:0008F0E2       sopen_
 0001:0008F2A7       __set_binary_
 0001:0008F30C       LbDosKeyboard_
 0001:0008F35C       read_
 0001:0008F46F       write_
 0001:0008F9EC       LbPaletteGet_
 0001:0008FA16       _chain_intr_
 0001:0008FA2F       _dos_setvect_
 0001:0008FA60       LbDataFree_
 0001:0008FA80       gets_
 0001:0008FB2C       _dos_getdrive_
 0001:0008FB40       _dos_setdrive_
 0001:0008FB54       chdir_
 0001:0008FB73       getcwd_
 0001:00090776       stricmp_
 0001:000907B0       AILDEBUG_start_
 0001:00090860       _TIME_callback
 0001:000908D0       TIME_write_
 0001:00090990       _AIL_startup
 0001:00090B30       _AIL_shutdown
 0001:00090BD0       _AIL_set_preference
 0001:00090CF0       _AIL_lock
 0001:00090D00       _AIL_unlock
 0001:00090D10       _AIL_get_real_vect
 0001:00090E20       _AIL_set_real_vect
 0001:00090EB0       _AIL_set_USE16_ISR
 0001:00090F50       _AIL_restore_USE16_ISR
 0001:00090FD0       _AIL_disable_interrupts
 0001:00090FE0       _AIL_restore_interrupts
 0001:00090FF0       _AIL_call_driver
 0001:00091120       _AIL_delay
 0001:000911A0       j__AIL_API_background
 0001:000911B0       _AIL_read_INI
 0001:00091580       _AIL_register_timer
 0001:00091840       _AIL_set_timer_frequency
 0001:00091A70       _AIL_start_timer
 0001:00091C50       _AIL_release_timer_handle
 0001:00091CD0       _AIL_release_all_timers
 0001:00091E50       _AIL_install_driver
 0001:00091F70       _AIL_uninstall_driver
 0001:00092100       _AIL_install_DIG_driver_file
 0001:000924D0       _AIL_release_sample_handle
 0001:000929B0       _AIL_end_sample
 0001:00092A30       _AIL_set_sample_playback_rate
 0001:00092AC0       _AIL_set_sample_volume
 0001:00092B50       _AIL_set_sample_pan
 0001:00092C70       AIL_sample_status
 0001:000931C0       _AIL_set_digital_master_volume
 0001:00094480       _AIL_init_sequence
 0001:000945A0       _AIL_start_sequence
 0001:00094620       _AIL_stop_sequence
 0001:00094720       _AIL_end_sequence
 0001:00094840       _AIL_set_sequence_volume
 0001:00094970       _AIL_sequence_status
 0001:00094DB0       _AIL_set_XMIDI_master_volume
 0001:00095B90       _AIL_register_trigger_callback
 0001:00095EF0       _AIL_register_event_callback
 0001:00096010       _AIL_register_timbre_callback
 0001:000966E0       _AIL_send_channel_voice_message
 0001:00096790       _AIL_send_sysex_message
 0001:00096820       _AIL_create_wave_synthesizer
 0001:00096950       _AIL_destroy_wave_synthesizer
 0001:000969D0       AILDEBUG_end_
 0001:00096A00       FreeMusic_
 0001:00096AB0       FreeSound_
 0001:00096B11       tolower_
 0001:00096B1F       __set_EDOM_
 0001:00096B24       __set_errno_
 0001:00096B30       __set_ERANGE_
 0001:00096B37       __set_EINVAL_
 0001:00096B47       __set_doserrno_
 0001:00096B53       __FPE_exception_
 0001:00096B5A       __allocfp_
 0001:00096C02       __freefp_
 0001:00096C3B       __purgefp_
 0001:00096C59       __update_buffer_
 0001:00096C9B       fseek_
 0001:00096D97       __chktty_
 0001:00096DC8       __ioalloc_
 0001:00096E3F       __flush_
 0001:00096EFE       getpid_
 0001:00096F04       ftell_
 0001:00096F34       lseek_
 0001:00096F75       __close_
 0001:00096FA7       j_unlink_
 0001:00096FAC       __doserror_
 0001:00096FBF       clock_value_
 0001:0009701A       __clock_init_
 0001:00097025       __clock_
 0001:00097046       strncmp_
 0001:0009706F       fgetc_
 0001:000970F8       __filbuf_
 0001:00097127       __fill_buffer_
 0001:000971D2       ungetc_
 0001:00097D9F       __setEFGfmt_
 0001:00097DBA       __sys_init_387_emulator
 0001:00097F3F       __sys_fini_387_emulator
 0001:00098015       __save_8087_
 0001:0009801A       __rest_8087_
 0001:0009801E       __init_8087_
 0001:0009804F       _fpreset_
 0001:00098059       __chk8087_
 0001:0009809C       __wcpp_2_fatal_runtime_error__
 0001:000980B9       _Alphabet
 0001:000980BA       a123456789abcde
 0001:000980DE       utoa_
 0001:00098128       itoa_
 0001:00098155       _Alphabet_0
 0001:00098156       a123456789abcde_0
 0001:0009817A       ultoa_
 0001:000981C3       ltoa_
 0001:000981DE       __int386x_
 0001:0009823B       _DoINTR_
 0001:00098288       _DoINTR_sub1
 0001:000985BC       getenv_
 0001:00098616       __Slash_C_
 0001:0009898C       spawnlp_
 0001:000989A2       _nmalloc_
 0001:00098A85       _nexpand_
 0001:00098ABD       __HeapManager_expand_
 0001:00098CAF       byteswap_
 0001:00098CD5       med3_
 0001:00098D2D       qsort_
 0001:0009916A       __MemAllocator
 0001:00099212       __MemFree
 0001:00099331       __IOMode_
 0001:00099386       __SetIOMode_
 0001:0009939B       isatty_
 0001:000993B9       _dosret0_
 0001:000993C0       _dosretax_
 0001:000993C5       __set_errno_dos_
 0001:00099434       __CHK
 0001:00099444       __GRO
 0001:00099447       __STK
 0001:00099465       __STKOVERFLOW_
 0001:00099474       filelength_
 0001:000994B1       strncpy_
 0001:00099540       unknown_libname_10
 0001:00099550       unknown_libname_11
 0001:00099560       _MEM_alloc_lock
 0001:00099590       _MEM_free_lock
 0001:00099610       _MEM_free_DOS
 0001:00099620       _VMM_lock_range
 0001:00099690       _VMM_unlock_range
 0001:00099700       _AIL_vmm_lock
 0001:00099E30       _FILE_size
 0001:00099E80       _FILE_read
 0001:0009A04F       cget_string_
 0001:0009A078       uncget_string_
 0001:0009A07C       vsscanf_
 0001:0009A0A3       sscanf_
 0001:0009A0D0       AIL_start_
 0001:0009A160       _AIL_driver_server
 0001:0009A1B0       _ASC_val
 0001:0009A270       _AIL_API_read_INI
 0001:0009A5B0       _AIL_API_set_preference
 0001:0009A5D0       _AIL_API_install_driver
 0001:0009A840       _AIL_API_uninstall_driver
 0001:0009A8F0       _AIL_API_get_IO_environment
 0001:0009A970       _AIL_API_startup
 0001:0009AA90       _AIL_API_shutdown
 0001:0009AAE0       AIL_end_
 0001:0009AB70       AllocateSoundBankMemory_
 0001:0009BD58       _AILA_startup
 0001:0009BE46       _AILA_shutdown
 0001:0009C184       _AIL_API_disable_interrupts
 0001:0009C306       _AIL_API_background
 0001:0009C547       fprintf_
 0001:0009C568       setbuf_
 0001:0009C585       time_
 0001:0009C5B2       _localtime_
 0001:0009C603       localtime_
 0001:0009C610       convDec_
 0001:0009C643       _asctime_
 0001:0009C72C       _ctime_
 0001:0009C745       ctime_
 0001:0009C74A       asctime_
 0001:0009C760       AILSS_start_
 0001:0009C820       _SS_start_DIG_driver_playback
 0001:0009C870       _SS_stop_DIG_driver_playback
 0001:0009C8A0       _SS_build_amplitude_tables
 0001:0009CDE0       _SS_configure_buffers
 0001:0009D220       _SS_attempt_DIG_detection
 0001:0009D320       _SS_destroy_DIG_driver
 0001:0009D3C0       _SS_construct_DIG_driver
 0001:0009D9E0       _AIL_API_install_DIG_driver_file
 0001:0009DA60       _AIL_API_install_DIG_driver_image
 0001:0009DAA0       _AIL_API_install_DIG_INI
 0001:0009DB20       _AIL_API_uninstall_DIG_driver
 0001:0009DB30       _AIL_API_active_sample_count
 0001:0009DB60       _AIL_API_allocate_sample_handle
 0001:0009DBE0       _AIL_API_init_sample
 0001:0009DCC0       _AIL_API_set_sample_address
 0001:0009DD20       _AIL_API_sample_playback_rate
 0001:0009DD40       _AIL_API_sample_volume
 0001:0009DD70       _AIL_API_sample_pan
 0001:0009DDA0       _AIL_API_sample_position
 0001:0009DDE0       _AIL_API_sample_loop_count
 0001:0009DE10       _AIL_API_start_sample
 0001:0009DE80       _AIL_API_resume_sample
 0001:0009DEB0       _AIL_API_end_sample
 0001:0009DF60       _AIL_API_set_sample_user_data
 0001:0009DF80       _AIL_API_sample_user_data
 0001:0009DFE0       _AIL_API_digital_master_volume
 0001:0009E0A0       _AIL_API_load_sample_buffer
 0001:0009E100       _AIL_API_sample_buffer_ready
 0001:0009E160       AILSS_end_
 0001:0009E220       AILSFILE_start_
 0001:0009E8B0       AILSFILE_end_
 0001:0009E8E0       AILXMIDI_start_
 0001:0009EB40       _XMI_sysex_message
 0001:0009EB90       _XMI_read_VLN
 0001:000A1890       _AIL_API_send_channel_voice_message
 0001:000A1950       _AIL_API_send_sysex_message
 0001:000A19A0       AILXMIDI_end_
 0001:000A1AA0       XDIG_set_pitch__arr
 0001:000A1CA0       AILXDIG_start_
 0001:000A1CD0       _XMI_write_log_2
 0001:000A1E90       WVL_search_
 0001:000A1EC0       XDIG_set_volume_
 0001:000A1F40       XDIG_set_pitch_
 0001:000A2050       _XDIG_TIMB_trap
 0001:000A2080       _XDIG_MIDI_trap
 0001:000A2510       _AIL_API_create_wave_synthesizer
 0001:000A26A0       _AIL_API_destroy_wave_synthesizer
 0001:000A2710       AILXDIG_end_
 0001:000A2740       StopAllSamples_
 0001:000A279D       __get_errno_ptr_
 0001:000A27A3       __get_doserrno_ptr_
 0001:000A27A9       tell_
 0001:000A27BA       __InitFiles_
 0001:000A2832       __full_io_exit_
 0001:000A283E       fcloseall_
 0001:000A2843       docloseall_
 0001:000A2895       __qwrite_
 0001:000A2911       unlink_
 0001:000A2930       intdos_
 0001:000A297C       flushall_
 0001:000A2981       __flushall_
 0001:000A29B0       getche_
 0001:000A29CD       __qread_
 0001:000A29EC       __FDFS
 0001:000A2A38       _EFG_Format_
 0001:000A2B15       forcedecpt_
 0001:000A2B5D       __cnvs2d_
 0001:000A2EE2       __int7_pl3_0
 0001:000A2EE4       __int7_pl3
 0001:000A2F03       __int7_0
 0001:000A2F08       __int7_X32VM
 0001:000A2F54       __int7
 0001:000A5D92       __hook387
 0001:000A5E5C       __unhook387
 0001:000A5EB5       _do_nothing_
 0001:000A5EB6       __init_80x87
 0001:000A5EDD       __EnterWVIDEO_
 0001:000A5F03       __exit_with_msg_
 0001:000A5F08       __fatal_runtime_error_
 0001:000A5F26       strnicmp_
 0001:000A5F7D       stpcpy_
 0001:000A5F8C       __cenvarg_
 0001:000A60C4       __ccmdline_
 0001:000A6119       __dospawn
 0001:000A61E7       strlen_
 0001:000A6200       pcopy_
 0001:000A6244       _splitpath2_
 0001:000A62CD       pickup_
 0001:000A62DF       _makepath_
 0001:000A63AA       spawnl_
 0001:000A63C8       spawnvp_
 0001:000A63D6       __unlink_
 0001:000A6415       __FreeDPMIBlocks_
 0001:000A6473       __ReAllocDPMIBlock_
 0001:000A655D       __LinkUpNewMHeap_
 0001:000A65D1       __LastFree_
 0001:000A661F       RationalAlloc_
 0001:000A66F2       __CreateNewNHeap_
 0001:000A67A1       __ExpandDGROUP_
 0001:000A68E5       __AdjustAmount_
 0001:000A695F       fgets_
 0001:000A69C2       memmove_
 0001:000A6A0E       _dos_read_
 0001:000A6A38       _dos_write_
 0001:000A6A40       StopMusic_
 0001:000A6AE2       setvbuf_
 0001:000A6B49       __getctime_
 0001:000A6C0C       mktime_
 0001:000A6D60       tryOSTimeZone_
 0001:000A6D61       tzset_
 0001:000A6D74       parse_time_
 0001:000A6D9A       parse_offset_
 0001:000A6EB0       parse_rule_
 0001:000A6FA2       __parse_tz_
 0001:000A7031       __brktime_
 0001:000A7146       _gmtime_
 0001:000A7162       gmtime_
 0001:000A716F       __leapyear_
 0001:000A71AA       calc_yday_
 0001:000A728F       check_order_
 0001:000A72B7       __isindst_
 0001:000A755B       time_less_
 0001:000A758C       func_array001
 0001:000A778C       func_array002
 0001:000A798C       _DC_0
 0001:000A799D       _DC_1
 0001:000A7AB7       _DC_48
 0001:000A7BDE       _DC_58
 0001:000A7E42       _DC_88
 0001:000A8015       _DC_101
 0001:000A82AA       _DC_122
 0001:000A840A       _DC_126
 0001:000A84BD       _DC_125
 0001:000A8513       _DC_127
 0001:000A8574       _DC_128
 0001:000A85CA       _M_0
 0001:000A85EB       _M_1
 0001:000A860F       _M_3
 0001:000A8641       _M_7
 0001:000A8673       _M_8
 0001:000A8697       _M_9
 0001:000A86BE       _M_11
 0001:000A86F2       _M_15
 0001:000A8726       _M_16
 0001:000A8742       _M_17
 0001:000A8761       _M_19
 0001:000A8788       _M_23
 0001:000A87AF       _M_24
 0001:000A87CE       _M_25
 0001:000A87F0       _M_27
 0001:000A8819       _M_31
 0001:000A8842       _M_32
 0001:000A886E       _M_33
 0001:000A889D       _M_35
 0001:000A88DD       _M_39
 0001:000A891D       _M_40
 0001:000A894F       _M_41
 0001:000A8984       _M_43
 0001:000A89C6       _M_47
 0001:000A8A08       _M_48
 0001:000A8A2F       _M_49
 0001:000A8A59       _M_51
 0001:000A8A8E       _M_55
 0001:000A8AC3       _M_56
 0001:000A8AF0       _M_57
 0001:000A8B20       _M_58
 0001:000A8B57       _M_63
 0001:000A8B8E       _M_64
 0001:000A8BAA       _M_65
 0001:000A8BD0       _M_66
 0001:000A8BFA       _M_67
 0001:000A8D65       _M_78
 0001:000A8DA8       _M_79
 0001:000A8EB7       _M_94
 0001:000A8FF1       _M_102
 0001:000A9185       _M_111
 0001:000A91D6       _M_112
 0001:000A9228       _M_120
 0001:000A925B       _M_121
 0001:000A929E       _M_122
 0001:000A92E4       _M_123
 0001:000A932B       _M_126
 0001:000A9371       _M_127
 0001:000A93B8       _AILSSA_merge
 0001:000A95D3       _AILSSA_DMA_copy
 0001:000A9666       _AILSSA_flush_buffer
 0001:000A9692       _AILSSA_VMM_lock
 0001:000A9977       _SetMaxPrec_
 0001:000A997D       DoEFormat_
 0001:000A9A24       DoFFormat_
 0001:000A9A87       AdjField_
 0001:000A9AF2       _FtoS_
 0001:000A9D16       strtod_
 0001:000A9EBF       __setenvp_
 0001:000A9F93       strcpy_
 0001:000A9FB2       spawnvpe_
 0001:000AA0E3       unknown_libname_12
 0001:000AA0F3       sbrk_
 0001:000AA1B2       __brk_
 0001:000AA274       __Nan_Inf_
 0001:000AA2F8       floor_
 0001:000AA334       _Scale_
 0001:000AA375       _Scale10V_
 0001:000AA45C       __cvt_
 0001:000AA642       unknown_libname_5
 0001:000AA6D2       unknown_libname_6
 0001:000AA76E       strchr_
 0001:000AA788       memcpy_
 0001:000AA7AE       modf_
 0001:000AA7C8       __CmpBigInt
 0001:000AA802       __Rnd2Int
 0001:000AA86D       __Bin2String
 0001:000AA98E       frexp_
 0001:000B1E2C       prop_text
 0002:000C0004       aImPlayer
 0002:000C0034       aLoadMapD
 0002:000C0042       aS
 0002:000C0045       aUserNameS
 0002:000C0054       aS_0
 0002:000C0057       aSessionNameS
 0002:000C0069       aS_1
 0002:000C006C       aInputNameS
 0002:000C007D       aS_2
 0002:000C0080       aPalNameS
 0002:000C008F       aS_3
 0002:000C0092       aOutputNameS
 0002:000C00A4       aUnrecognisedOp
 0002:000C00BF       aExitSwitchNetO
 0002:000C00D8       aDrawVectX1DY1D
 0002:000C00FD       aDrawThingOErro
 0002:000C0127       aParentDChildDP
 0002:000C0150       fmt
 0002:000C016D       aErrorInDrawObj
 0002:000C0193       aErrorCurrentFa
 0002:000C01BA       aErrorPointOfrP
 0002:000C01DE       aXDYDZD
 0002:000C01ED       aStartOfShowMap
 0002:000C0205       aC0DNextDThingN
 0002:000C0254       aC0DNextDSthing
 0002:000C02A6       aEndOfMapwho
 0002:000C02B7       aEngHeadParent
 0002:000C02D1       aError1NextDMeH
 0002:000C02F4       aError1NextDMeH_0
 0002:000C0317       aPosUnkParentDC
 0002:000C0335       aUnknownNMD
 0002:000C0347       aUnkParentDChil
 0002:000C0361       aUnkParentDChil_0
 0002:000C037B       aErrorMapwhoCou
 0002:000C0393       aMapwhoDParentD
 0002:000C03A9       aErrorTexturePa
 0002:000C03CD       aErrorTexturePa_0
 0002:000C03F4       aDelPointsDNoD
 0002:000C040C       aDelQuadDNoD
 0002:000C0422       aDelFDNoD
 0002:000C0435       aDelObjectsDNoD
 0002:000C044E       aDelNormsDNoD
 0002:000C0465       aDelTextsDNoD
 0002:000C047C       aDelQuadTextsDN
 0002:000C0498       aBeforeNextObje
 0002:000C04DB       aNextNormalDNex
 0002:000C052C       aTestedDObjects
 0002:000C0541       aAfterNextObjec
 0002:000C0582       aNextNormalDNex_0
 0002:000C05D0       aDelPointsDNoD_0
 0002:000C05E8       aDelQuadDNoD_0
 0002:000C05FE       aDelFDNoD_0
 0002:000C0611       aDelTextsDNoD_0
 0002:000C0628       aDelQuadTextsDN_0
 0002:000C0644       aObjectDPageD
 0002:000C0659       aBeforeNextObje_0
 0002:000C069C       aNextNormalDNex_1
 0002:000C06ED       aTestedDObjects_0
 0002:000C0702       aA
 0002:000C0705       a1
 0002:000C0708       a2
 0002:000C070B       a3
 0002:000C070E       a4
 0002:000C0711       a5
 0002:000C0714       a99
 0002:000C0718       aAfterNextObjec_0
 0002:000C0759       aNextNormalDNex_2
 0002:000C07A7       aStrangeObjectD
 0002:000C07EC       aErrorStartpoin
 0002:000C0812       aErrorEndpointA
 0002:000C0836       aStrangeObjectD_0
 0002:000C087B       aErrorStartpoin_0
 0002:000C08A1       aErrorEndpointA_0
 0002:000C08C5       aMapsMap03dDat
 0002:000C08D6       aMapsC03dl03dDa
 0002:000C08EA       aMap03dDat
 0002:000C08F6       aC03dl03dDat
 0002:000C0905       text
 0002:000C0912       aMapsC03dl03dDa_0
 0002:000C0926       aMapsSL02d
 0002:000C0934       aMapsObjAll
 0002:000C0941       aMapsObjAll_0
 0002:000C094E       aCumLenD
 0002:000C095C       aDataAll03dMis
 0002:000C096D       aDataAll03dMis_0
 0002:000C097E       aSaveLevel
 0002:000C098B       aMapsC03dl03dDa_1
 0002:000C099F       aMapsSL02d_0
 0002:000C09AD       aSthingDOffsetD
 0002:000C09CF       aDataTmapAni
 0002:000C09DD       aDataTmapAni_0
 0002:000C09EB       aLoadMap
 0002:000C09F6       aMapsMap03dDat_0
 0002:000C0A07       aObject0DC0DXDZ
 0002:000C0A29       aReadMapError
 0002:000C0A3B       aSaveMap
 0002:000C0A46       aMapsMap03dDat_1
 0002:000C0A57       aErrorWhileSavi
 0002:000C0A74       aErrorWriting
 0002:000C0A85       aMapsMap03dPsx
 0002:000C0A96       aC0D
 0002:000C0A9D       aNextObjectFace
 0002:000C0AB3       aNextQuickLight
 0002:000C0AC9       aNextNormalD
 0002:000C0ADA       aErrorWriting_0
 0002:000C0AEB       aObjectDFlagD
 0002:000C0AFF       aObjectsObj02dN
 0002:000C0B13       aObjectsVeh02dN
 0002:000C0B27       aSaveNameSObjec
 0002:000C0B40       aObjectsObj02dD
 0002:000C0B54       aObjectsObj02dD_0
 0002:000C0B6A       aObjectsVeh02dD
 0002:000C0B7E       aObjectsVeh02dD_0
 0002:000C0B94       aErrorWritingPr
 0002:000C0BAC       aObjectsObj02dN_0
 0002:000C0BC0       aObjectsVeh02dN_0
 0002:000C0BD4       aObjectsObj02dQ
 0002:000C0BE8       aObjectsObj02dQ_0
 0002:000C0BFE       aObjectsVeh02dQ
 0002:000C0C12       aObjectsVeh02dQ_0
 0002:000C0C28       aQuadCurrentFac
 0002:000C0C59       aObjectsObj02dQ_1
 0002:000C0C6D       aObjectsObj02dQ_2
 0002:000C0C83       aObjectsVeh02dQ_1
 0002:000C0C97       aObjectsVeh02dQ_2
 0002:000C0CAD       aErrorWritingPr_0
 0002:000C0CC5       aObjectsObj02dB
 0002:000C0CD9       aObjectsObj02dB_0
 0002:000C0CEF       aObjectsVeh02dB
 0002:000C0D03       aObjectsVeh02dB_0
 0002:000C0D19       aBullfrogStanda
 0002:000C0D40       aNameC
 0002:000C0D4E       aTypeDC
 0002:000C0D5A       aVerticesDFaces
 0002:000C0D7E       aVertexListC
 0002:000C0D8E       aVertexDXDYDZDC
 0002:000C0DB2       aCFaceListC
 0002:000C0DC3       aFaceDMoDFlDRDG
 0002:000C0E4C       aCQuadListC
 0002:000C0E5D       aFaceDMoDFlDRDG_0
 0002:000C0EFA       aErrorWritingBo
 0002:000C0F16       aObjectsObj02dN_1
 0002:000C0F2A       aObjectsVeh02dN_1
 0002:000C0F3E       aLoadSinglePrim
 0002:000C0F6F       aMyreadIntoObje
 0002:000C0F88       aS_4
 0002:000C0F8C       aObjectsObj02dD_1
 0002:000C0FA0       aObjectsObj02dD_2
 0002:000C0FB6       aObjectsVeh02dD_1
 0002:000C0FCA       aObjectsVeh02dD_2
 0002:000C0FE0       aOutOfSync
 0002:000C0FF0       aSetupNetSucces
 0002:000C102D       aNetFailPlayerN
 0002:000C1046       aStartNetworkCo
 0002:000C107A       aPacket02dGam
 0002:000C1089       aCBullfrogCdSyn
 0002:000C10B2       aDataTitleDat
 0002:000C10C1       aDataSynghostTa
 0002:000C10D3       sound_path
 0002:000C10E8       a5s
 0002:000C10ED       aLbm
 0002:000C10F3       a03dLbm
 0002:000C10FC       aSavingScreenS
 0002:000C1110       aS_5
 0002:000C1113       aWb
 0002:000C1118       aCouldNotFindPe
 0002:000C112F       aMissionComplet
 0002:000C1140       aMissionFailed
 0002:000C1150       aC0DTestObjUnkn
 0002:000C1184       aDataMsta0Ani
 0002:000C1194       aFpD
 0002:000C119D       aSpritesSetupD
 0002:000C11B0       aDataTablesDat
 0002:000C11C0       aDataTablesDat_0
 0002:000C11D0       aLoadAllData
 0002:000C11E0       aSetup3d
 0002:000C11EB       aSetupStuff
 0002:000C11F9       aSetupHost
 0002:000C1206       aInitEdit
 0002:000C1213       aDidInitEdit
 0002:000C1224       aInitEngineNetG
 0002:000C124B       aSetup
 0002:000C1254       aDataTex02dDat
 0002:000C1268       aThingsUsed
 0002:000C1278       aSthingsUsed
 0002:000C1288       aFloorTexture
 0002:000C1298       aFaceTexture
 0002:000C12A8       aObjectPoint
 0002:000C12B8       aObjectFace
 0002:000C12C8       aObject
 0002:000C12D8       aQuickLight
 0002:000C12E8       aFullLight
 0002:000C12F8       aNormal
 0002:000C1308       aObjectFace4
 0002:000C1318       aAnimTmap_0
 0002:000C1328       aTraffic
 0002:000C1338       aLightCommand
 0002:000C1348       aPQuadTexture
 0002:000C1358       aPQuadFace
 0002:000C1368       aPFaceTexture
 0002:000C1378       aPObjectPoint
 0002:000C1388       aPObjectFace
 0002:000C1398       aPObject
 0002:000C13A8       aColVects
 0002:000C13B8       aColVectsList
 0002:000C13C8       aWalkHeaders
 0002:000C13D6       aWalkItems
 0002:000C13E1       aBlockBits
 0002:000C13EC       aDeletePeople
 0002:000C13FA       aResetRoadLight
 0002:000C140C       aLoadMap_0
 0002:000C1415       aSaveMap_0
 0002:000C141E       aCompressMap
 0002:000C142B       aAmbientLight
 0002:000C1439       aLoadsaTexture
 0002:000C1448       aSetbackLight
 0002:000C1456       aRecalcLights
 0002:000C1464       aSyncTextures
 0002:000C1472       aCompressTextur
 0002:000C1484       aShowMemory
 0002:000C1490       aCancel
 0002:000C1497       aSetGroupNormal
 0002:000C14A8       aSetBulbDeath
 0002:000C14B7       aGroupToFlicker
 0002:000C14C8       aGroupToPulse
 0002:000C14D7       aGroupToFlash
 0002:000C14E6       aTextureFlashSy
 0002:000C14F9       aLightsToSprite
 0002:000C150B       aDeleteLights
 0002:000C1519       aExit
 0002:000C151E       aSetLightNormal
 0002:000C152F       aSingleToFlicke
 0002:000C1541       aSingleToPulse
 0002:000C1551       aSingleToFlash
 0002:000C1561       aTextureFlashSy_0
 0002:000C1574       aLightsToTextur
 0002:000C1587       aChangeLightsCo
 0002:000C159C       aDeleteLight
 0002:000C15A9       aSetAutoLight
 0002:000C15B8       aExit_0
 0002:000C15C0       aObject1XDYDZDS
 0002:000C15F0       aObject1XDYDZD
 0002:000C160C       aObject2XDYDZD
 0002:000C1628       aCompareObject2
 0002:000C1660       aStart2DNofaces
 0002:000C1690       aLockingOffsetX
 0002:000C16B2       aMaxObjectsPerM
 0002:000C16C6       aErrorOutOfPoin
 0002:000C16E0       aOutOfPoints
 0002:000C16EE       aErrorOutOfFace
 0002:000C1707       aOutOfFaces
 0002:000C1714       aErrorOutOfText
 0002:000C172C       aOutOfTextures
 0002:000C173C       aErrorOutOfPoin_0
 0002:000C1756       aOutOfPoints_0
 0002:000C1764       aErrorOutOfFace_0
 0002:000C177D       aOutOfQuadFaces
 0002:000C178F       aErrorOutOfText_0
 0002:000C17A7       aOutOfQuadTextu
 0002:000C17BC       aObjectsObj02dA
 0002:000C17D0       aObjectsVeh02dA
 0002:000C17E4       aR
 0002:000C17E6       aS_6
 0002:000C17E9       aTriMesh
 0002:000C17F3       aSDSD
 0002:000C1801       aVertex
 0002:000C1808       aS_7
 0002:000C180B       aList
 0002:000C1811       a2sFYFZF
 0002:000C1821       aFace
 0002:000C1826       aS_8
 0002:000C1829       aList_0
 0002:000C182F       a2sD2sD2sD3sD3s
 0002:000C1860       aSmoothing
 0002:000C186F       aObjectsObj02dB_1
 0002:000C1883       aR_0
 0002:000C1885       aS_9
 0002:000C1888       aVertices
 0002:000C1892       aDSDSD
 0002:000C18A3       aVertex_0
 0002:000C18AA       aS_10
 0002:000C18AD       aList_1
 0002:000C18B3       aSDYDZD
 0002:000C18C3       aFace_0
 0002:000C18C8       aS_11
 0002:000C18CB       aList_2
 0002:000C18D1       a3sD3sD2sD2sD2s
 0002:000C1959       aSmoothing_0
 0002:000C1964       aDoundo
 0002:000C196E       aUndoIndexDType
 0002:000C1995       aDoundoundo
 0002:000C19A3       aUndoIndexDType_0
 0002:000C19CA       aEditCBrushCoun
 0002:000C1A09       aEditCBrushCoun_0
 0002:000C1A3D       aEditCBrushCoun_1
 0002:000C1A6E       aEditCBrushCopy
 0002:000C1A8A       aRotatingPointN
 0002:000C1AA0       aX1DX2DZ1DZ2D
 0002:000C1AB9       aEditCCopyObjec
 0002:000C1AE9       aEditCCopyObjec_2
 0002:000C1B18       aEditCCopyObjec_0
 0002:000C1B4A       aEditCCopyObjec_1
 0002:000C1B7A       aEditCCopyObjec_4
 0002:000C1BB1       aEditCCopyObjec_3
 0002:000C1BEB       aEditCCopyBrush
 0002:000C1C16       aEditCCopyBrush_0
 0002:000C1C40       aEditCCopyBrush_1
 0002:000C1C6B       aTexturesDStart
 0002:000C1C83       aAnimsDStartD
 0002:000C1C9B       aThingsDStartD
 0002:000C1CB3       aObjectsDStartD
 0002:000C1CCB       aPointsDStartD
 0002:000C1CE3       aFacesDStartD
 0002:000C1CFB       aFaces4DStartD
 0002:000C1D13       aEditCBrushRema
 0002:000C1D3F       aEditCBrushRema_0
 0002:000C1D6A       aEditCBrushRema_1
 0002:000C1D96       aEditCBrushSave
 0002:000C1DC8       aEditCBrushSave_0
 0002:000C1DF7       aEditCBrushSave_1
 0002:000C1E29       aEditCBrushSave_2
 0002:000C1E60       aEditCBrushSave_3
 0002:000C1E98       aEditCBrushSave_4
 0002:000C1ED0       aEditCBrushSave_5
 0002:000C1EFB       aEditCBrushSave_6
 0002:000C1F25       aStartpointDEnd
 0002:000C1F43       aP1DP2DP3D
 0002:000C1F56       aEditCBrushSave_7
 0002:000C1F81       aEditCBrushSave_8
 0002:000C1FAC       aTexturesDStart_0
 0002:000C1FC4       aAnimsDStartD_0
 0002:000C1FDC       aThingsDStartD_0
 0002:000C1FF4       aObjectsDStartD_0
 0002:000C200C       aPointsDStartD_0
 0002:000C2024       aFacesDStartD_0
 0002:000C203C       aFaces4DStartD_0
 0002:000C2054       aLogicError1a
 0002:000C2064       aLogicError1b
 0002:000C2074       aLogicError1a_0
 0002:000C2084       aLogicError1b_0
 0002:000C2094       aLightFlicker
 0002:000C20A2       aMinBrightMaxBr
 0002:000C20C7       aFlickerEveryTo
 0002:000C20F1       aDone
 0002:000C20F6       aLightFlash
 0002:000C2102       aMinBrightMaxBr_0
 0002:000C2127       aOnForOffForGam
 0002:000C214F       aDone_0
 0002:000C2154       aLightAnimTmapS
 0002:000C216B       aMinBrightMaxBr_1
 0002:000C2190       aSyncWithFrames
 0002:000C21A1       aDone_1
 0002:000C21A6       aLightFadeInOut
 0002:000C21BA       aMinBrightMaxBr_2
 0002:000C21DF       aFadeSpeedPos
 0002:000C21EF       aFadeSpeedNeg
 0002:000C21FF       aDone_2
 0002:000C2204       aLightDeath
 0002:000C2210       aMinBrightMaxBr_3
 0002:000C2235       aFadeSpeedPos_0
 0002:000C2245       aFadeSpeedNeg_0
 0002:000C2255       aDone_3
 0002:000C225A       aLightColour
 0002:000C2267       aRed
 0002:000C226B       aGreen
 0002:000C2271       aBlue
 0002:000C2276       aDone_4
 0002:000C227B       aLightingSprite
 0002:000C228D       aDelete
 0002:000C2294       aLight
 0002:000C229A       aDelete_0
 0002:000C22A1       aAllLights
 0002:000C22AC       aFlickerType
 0002:000C22B9       aFadeType
 0002:000C22C3       aSpeedD
 0002:000C22CD       aAllDone
 0002:000C22D6       aObjD
 0002:000C22DF       aPlacingMany
 0002:000C22EF       aNewThingDNextO
 0002:000C230D       aPlacingManyGat
 0002:000C2322       aAngleXD
 0002:000C232F       aNewThingDNextO_0
 0002:000C234D       aColD
 0002:000C2354       aDDDD
 0002:000C2364       aMikedSizeD
 0002:000C2374       aTexOrientation
 0002:000C2398       aD
 0002:000C239B       aObjectPickedDP
 0002:000C23BB       aEndStartStartD
 0002:000C23D3       aTlxDTlyD
 0002:000C23E6       aCurXDCurYD
 0002:000C23FD       aDataTextwalkDa
 0002:000C240F       aCouldnTOpenTex
 0002:000C242A       aWriteErrorText
 0002:000C2444       aSavedTextureWa
 0002:000C2461       aDataTextwalkDa_0
 0002:000C2473       aCouldnTOpenTex_0
 0002:000C248E       aWriteErrorText_0
 0002:000C24A8       aLoadedTextureW
 0002:000C24C6       aSD
 0002:000C24CC       aQuadFaceDHadNo
 0002:000C24E8       a3faceDHadNoNor
 0002:000C2500       aDxDDyDDzDBrigh
 0002:000C251C       aErrorInEngineC
 0002:000C2543       aStandard
 0002:000C254C       aUnusedVD
 0002:000C2557       aObjectDPrimNex
 0002:000C2578       a02d
 0002:000C257D       aExitKeep
 0002:000C2589       aExitLose
 0002:000C2595       aC0DTextureD
 0002:000C25A7       aRemoveThingRoa
 0002:000C25D0       aDeleteErrorPre
 0002:000C2601       aRemoveThingRoa_0
 0002:000C262A       aDeleteErrorNex
 0002:000C265B       aRemoveThingDel
 0002:000C267C       aChoosePoly
 0002:000C2688       aChooseCol
 0002:000C2693       aChooseText
 0002:000C269F       aChooseMode
 0002:000C26AB       aPlaceObject
 0002:000C26B8       aEditObject
 0002:000C26C4       aPickTexture
 0002:000C26D1       aPlaceTexture
 0002:000C26DF       aChooseObject
 0002:000C26ED       aEditPrimObject
 0002:000C26FE       aPlaceLight
 0002:000C270A       aEditLight
 0002:000C2715       aPickBrush
 0002:000C2720       aPlaceBrush
 0002:000C272C       aPickTile
 0002:000C2736       aPlaceStaticSpr
 0002:000C274A       aTestCar
 0002:000C2753       aEditCommands
 0002:000C2761       aEditAnimTexts
 0002:000C2771       aFineTuneObject
 0002:000C2782       aBuildShuttle1
 0002:000C2791       aBuildRoad1
 0002:000C279D       aEditTraffic
 0002:000C27AA       aEditLoadMap
 0002:000C27B8       aEditSaveMap
 0002:000C27C6       aEditAmbientLig
 0002:000C27D9       aEditNewMap
 0002:000C27E6       aEditMapAlt
 0002:000C27F3       aEditMapSplit
 0002:000C2802       aEditMapSort
 0002:000C2810       aEditMapLoadSav
 0002:000C2823       aEditAltMode
 0002:000C2831       aUnused
 0002:000C2838       aUnused_0
 0002:000C283F       aUnused_1
 0002:000C2846       aUnused_2
 0002:000C284D       aUnused_3
 0002:000C2854       aUnused_4
 0002:000C285B       aNone_1
 0002:000C2860       aMaximum
 0002:000C2868       aRandom
 0002:000C2870       aFirstPointD
 0002:000C2881       aOhShit0
 0002:000C288D       aOhShit1
 0002:000C2899       aOhShit2
 0002:000C28A5       aOldShade0DNewS
 0002:000C28C5       aOldShade1DNewS
 0002:000C28E5       aOldShade2DNewS
 0002:000C2905       aD_0
 0002:000C2908       aD_1
 0002:000C290B       aD_2
 0002:000C290E       aDDD
 0002:000C2917       aD_3
 0002:000C291A       aD_4
 0002:000C291D       aDDD_0
 0002:000C2926       aWeHaveFoundAnI
 0002:000C2958       aErrorFoundALar
 0002:000C2986       aRightButton
 0002:000C2994       aBeforeC0DTempM
 0002:000C29BD       aAfterC0DTempMa
 0002:000C29E5       aNormalsCnDTnD
 0002:000C29FC       aDiffNormalsCnD
 0002:000C2A18       aPassedTextureT
 0002:000C2A39       aTestpointTextu
 0002:000C2A59       aTestpointTextu_0
 0002:000C2A79       aQuadFaceDTempU
 0002:000C2AC7       aBeforeC0DTempM_0
 0002:000C2AF0       aFace2DFace1D
 0002:000C2B04       aAfterC0DTempMa_0
 0002:000C2B2C       aPassedTextureT_0
 0002:000C2B4D       aTestpointTextu_1
 0002:000C2B6D       aTestpointTextu_2
 0002:000C2B8D       aQuadFaceDTempU_0
 0002:000C2BDB       aD_5
 0002:000C2BDE       aAnimTmapD
 0002:000C2BF0       aEditMDOldMD
 0002:000C2C04       aStartFirstgo9N
 0002:000C2C51       aModeDMousemD
 0002:000C2C66       aSelectFaces
 0002:000C2C73       aMode
 0002:000C2C7B       aEdit
 0002:000C2C83       aQuadedit
 0002:000C2C8C       aTexture
 0002:000C2C95       aSetGroup
 0002:000C2CAB       aPaint
 0002:000C2CB1       aColour
 0002:000C2CB8       aOpaque
 0002:000C2CBF       aSemiTrans
 0002:000C2CCA       aDoubSided
 0002:000C2CD5       aFunnyMirr
 0002:000C2CE0       aColCycling
 0002:000C2CEC       aWalkable
 0002:000C2CF5       aSelfIllumi
 0002:000C2D01       aDoor
 0002:000C2D06       aAnimTmap
 0002:000C2D10       aChoose
 0002:000C2D17       aColour_0
 0002:000C2D1E       aAll
 0002:000C2D22       aDone_5
 0002:000C2D27       aOp
 0002:000C2D2A       aSt
 0002:000C2D2D       aDs
 0002:000C2D30       aFm
 0002:000C2D33       aCc
 0002:000C2D36       aWa
 0002:000C2D39       aSi
 0002:000C2D3C       aDr
 0002:000C2D3F       aAt
 0002:000C2D44       aStartDDeletedD
 0002:000C2D64       aErrorD
 0002:000C2D6F       aNextQuickLight_0
 0002:000C2D85       aSetLightToOn
 0002:000C2D98       aSetLightToOff
 0002:000C2DAC       aActuallySetDat
 0002:000C2DD2       aErrorNormalOut
 0002:000C2DF3       aErrorNormalQua
 0002:000C2E18       aErrorTooManyQu
 0002:000C2E38       aErrorToManyQui
 0002:000C2E57       aErrorToManyFlo
 0002:000C2E7C       aErrorToManyQui_0
 0002:000C2E9B       aApplyAmbientTo
 0002:000C2EB4       aNcount0
 0002:000C2EC0       aNcount0_0
 0002:000C2ECC       aFindNearPointI
 0002:000C2F07       aBestDDxDDyDDzD
 0002:000C2F32       aSomethingHitBy
 0002:000C2F8D       aDistDBpointD
 0002:000C2FD7       aD_6
 0002:000C2FDA       aCheckForOtherP
 0002:000C2FFA       aError1CheckFor
 0002:000C3023       aCheckForOtherP_0
 0002:000C3044       aErrorCheckForO
 0002:000C306C       aErrorLightLoop_0
 0002:000C3091       aErrorLightLoop
 0002:000C30B6       aKillTargetD
 0002:000C30C8       aTargetDType2D
 0002:000C30DE       aBlockTargetD
 0002:000C30F1       aScareTargetD
 0002:000C3104       aBuildNavigateP
 0002:000C311B       aPathlenD
 0002:000C3129       aC0DC1DX8DY8D
 0002:000C3144       aStartNavigateX
 0002:000C3160       aNavigateXDZD
 0002:000C3176       aGotoPointXDZD
 0002:000C318E       aDxDDzDDistD
 0002:000C31A5       aNextNode
 0002:000C31B2       aLastNode
 0002:000C31BF       aNewNodeXDZD
 0002:000C31D5       aWaitPersonDNea
 0002:000C31F5       aDistDRequiredD
 0002:000C320B       aTurnDTimer2D
 0002:000C3220       aReinitPlayerC0
 0002:000C3237       aInKillDidGotoP
 0002:000C3254       aTargetStateD
 0002:000C3267       aCanIShootDistD
 0002:000C327E       aShooting
 0002:000C328A       aUnknownWeaponT
 0002:000C32A4       aD_7
 0002:000C32A7       aErrorThisShoul
 0002:000C32D1       aErrorRocketOff
 0002:000C32EA       aErrorRocketOff_0
 0002:000C3303       aErrorRocketOff_1
 0002:000C331C       aErrorRocketOff_2
 0002:000C3335       aAddingNewFungu
 0002:000C3353       aUnknownTypeDIt
 0002:000C336C       aPUnknownTypeDI
 0002:000C3388       aADBDCDDDGxDGyD
 0002:000C33AD       aIntersect
 0002:000C33B8       aIntersect_0
 0002:000C33C4       aWalkFaceDP0YD
 0002:000C33DB       aQwalkFaceDP0YD
 0002:000C33F3       aNoWalkable
 0002:000C3401       aMemShiftRightB
 0002:000C3430       aMemShiftRightB_0
 0002:000C3479       aMemSwapDataXRe
 0002:000C34AA       aSwapGroupPtrDS
 0002:000C34E5       aRetrDStoredAtD
 0002:000C34FE       aIndexRetStored
 0002:000C3512       aStoreHasCaught
 0002:000C353D       aError
 0002:000C359D       aErrorStoreAtDR
 0002:000C35C5       aStoreHasCaught_0
 0002:000C35EE       aErrorSwapGroup
 0002:000C3636       aAbsBlockWithDi
 0002:000C3650       aBIndexStoreDIn
 0002:000C3671       aAIndexStoreDIn
 0002:000C3692       aSwapMapNextFlo
 0002:000C36B3       aBlockDIndexRet
 0002:000C36D8       aTotalBufferUse
 0002:000C36EF       aSwapMapAfterNe
 0002:000C3716       aSthingsEmptyHe
 0002:000C3744       aErrXW255XDWDGa
 0002:000C3771       aSlbm
 0002:000C3777       aStab
 0002:000C377D       aLbmS
 0002:000C3787       aTabS
 0002:000C3791       aNoSpritesD
 0002:000C37A1       aFpzD
 0002:000C37AB       aWritingTabS
 0002:000C37C1       aStab_0
 0002:000C37C7       aSdat
 0002:000C37CD       aS_12
 0002:000C37D0       aTabSDatS
 0002:000C37E1       lbm_name
 0002:000C3800       aStartD
 0002:000C3809       aD_8
 0002:000C380C       aD_14
 0002:000C380F       aD_15
 0002:000C3812       aD_18
 0002:000C3815       aMemoryLow
 0002:000C3821       aSDDDDD
 0002:000C383A       aTotalMemoryD
 0002:000C384B       aAddthingAtXDYD
 0002:000C3868       aWIfreqD
 0002:000C3873       aSDampD
 0002:000C387D       aXGravityD
 0002:000C388A       aHaveAllYourBui
 0002:000C38AC       aErrorNormalOut_0
 0002:000C38CC       aErrorToManyQui_1
 0002:000C38EB       aErrorNormalOut_1
 0002:000C390B       aErrorToManyQui_2
 0002:000C392A       aErrorNormalOut_2
 0002:000C394A       aErrorToManyQui_3
 0002:000C3969       aErrorNormalOut_3
 0002:000C3989       aErrorToManyQui_4
 0002:000C39A8       aLowInPlaceLigh
 0002:000C39BC       aErrorTooManyFl
 0002:000C39E2       aErrorNormalOut_4
 0002:000C3A02       aErrorToManyQui_5
 0002:000C3A21       aErrorNormalOut_5
 0002:000C3A41       aErrorToManyQui_6
 0002:000C3A60       aLowInPlaceLigh_0
 0002:000C3A74       aErrorTooManyFl_0
 0002:000C3A9A       aOutOfObjects
 0002:000C3AA9       aPlaceVehicleD
 0002:000C3ABD       aObjDSpDEpDNfD
 0002:000C3AD9       aErrorOutOfPoin_1
 0002:000C3AF3       aErrorOutOfFace_1
 0002:000C3B0C       aErrorOutOfText_1
 0002:000C3B24       aErrorOutOfFace_2
 0002:000C3B3D       aAnimTextFoundR
 0002:000C3B68       aNewAnimFromD
 0002:000C3B7C       aErrorOutOfText_2
 0002:000C3B94       aNStartsD
 0002:000C3BA3       aDataNsta0Ani
 0002:000C3BB3       aDataNfra0Ani
 0002:000C3BC3       aRebuildBezDD
 0002:000C3BD8       aBez0XDBez0YDBe
 0002:000C3BF8       aBezDyDBez0XDBe
 0002:000C3C22       aErrorNextthing
 0002:000C3C5A       aErrorNextthing_0
 0002:000C3C94       aGD
 0002:000C3C98       aNextObjectiveD
 0002:000C3CAD       aStrcmpSSD
 0002:000C3CC1       aUseNewStringMi
 0002:000C3CF3       aStateDSubstate
 0002:000C3D0A       aInEditMapThing
 0002:000C3D20       aInSetObjective
 0002:000C3D33       aExitObjective
 0002:000C3D45       aFindAPersonArr
 0002:000C3D5E       aNewStringSInde
 0002:000C3D81       aComeditThingDT
 0002:000C3DA2       aComeditThingDT_0
 0002:000C3DC3       aD_9
 0002:000C3DC6       aD_10
 0002:000C3DC9       aD_11
 0002:000C3DCC       aS_13
 0002:000C3DCF       aS_14
 0002:000C3DD2       aTextIdXPGroupN
 0002:000C3E0F       aS_15
 0002:000C3E15       aS_16
 0002:000C3E1A       aS_17
 0002:000C3E1D       aEditText
 0002:000C3E2A       aGotoPersonD
 0002:000C3E39       aKillPersonD
 0002:000C3E48       aBlockPersonD
 0002:000C3E58       aScarePersonD
 0002:000C3E68       aUseItemXDYDZD
 0002:000C3E7E       aFollowPath
 0002:000C3E8B       aWaitPDeadD
 0002:000C3E9A       aWaitPNearD
 0002:000C3EA9       aWaitAllGDeadD
 0002:000C3EBC       aWaitPArriveD
 0002:000C3ECD       aWaitMemGDNear
 0002:000C3EE1       aWaitMemGArrive
 0002:000C3EFA       aS_24
 0002:000C3EFD       aPersonDeadD
 0002:000C3F0C       aAllGroupDeadD
 0002:000C3F1E       a1MemGroupDeadD
 0002:000C3F32       aAllGroupArrive
 0002:000C3F50       aMemGroupArrive
 0002:000C3F6E       aPersonArrivesD
 0002:000C3F8A       aUnknownObjecti
 0002:000C3FA7       aM02dL02dS
 0002:000C3FB6       aIndexDMDS
 0002:000C3FC7       aEnterTextS
 0002:000C3FD8       aKOnSight
 0002:000C3FE3       aKGunOut
 0002:000C3FED       aKIfArmed
 0002:000C3FF8       aTruce
 0002:000C3FFE       aGroups
 0002:000C4005       aGroups_0
 0002:000C400C       aGroups_1
 0002:000C4013       aGroups_2
 0002:000C401A       aSetGroupAttrib
 0002:000C4036       aDone_6
 0002:000C403B       aCreatePerson
 0002:000C4049       aPersonGroup
 0002:000C4056       aPersonType
 0002:000C4062       aPersonMood
 0002:000C406E       aDone_7
 0002:000C4073       aWeapons
 0002:000C407B       aMods
 0002:000C4080       aSetupLevel
 0002:000C408C       aPlayableGroup
 0002:000C409B       aMapNo
 0002:000C40A2       aDone_8
 0002:000C40A7       aHeadD
 0002:000C40AF       aDS
 0002:000C40B5       aEditMission
 0002:000C40C2       aXDYDTD
 0002:000C40D1       aSourceId
 0002:000C40DB       aSuccessId
 0002:000C40E6       aFailId
 0002:000C40EE       aSpecialEffect
 0002:000C40FD       aEffectSuccess
 0002:000C410C       aEffectFail
 0002:000C4118       aStartTrigger
 0002:000C4126       aSuccessTrig
 0002:000C4133       aFailTrigger
 0002:000C4140       aD_12
 0002:000C4143       aD_16
 0002:000C4146       aD_17
 0002:000C4149       aBank
 0002:000C414E       aAddObjective
 0002:000C415C       aDelObjective
 0002:000C416A       aDone_9
 0002:000C416F       aVeryDeepNodeDD
 0002:000C418D       aNodeDDepthDCou
 0002:000C41AB       aDone_10
 0002:000C41B0       aInitPerson
 0002:000C41BC       aInitVehicle
 0002:000C41C9       aInitCamera
 0002:000C41D5       aAutoDefence
 0002:000C41E2       aAutoLight
 0002:000C41ED       aDoubleDot
 0002:000C41F0       aEditObject_0
 0002:000C41FC       aEditSettings
 0002:000C420A       aDeleteThing
 0002:000C4219       aDoubleDot2
 0002:000C421C       aCreateMission
 0002:000C422B       aEditMission_0
 0002:000C4238       aCopyMission
 0002:000C4245       aDeleteMission
 0002:000C4254       aSaveMissions
 0002:000C4262       aReloadMissions
 0002:000C4272       aDoubleDot6
 0002:000C4275       aInitItem
 0002:000C4282       aDefineAGroup
 0002:000C4291       aEditThing
 0002:000C429E       aCopyCommands
 0002:000C42AC       aEdit_0
 0002:000C42B1       aDefineASchedul
 0002:000C42C3       aSetObjective
 0002:000C42D1       aEditGameMissio
 0002:000C42E4       aLoadLevel_0
 0002:000C42EF       aSaveLevel_0
 0002:000C42FA       aDefineLevel
 0002:000C4307       aTestLevel
 0002:000C4312       aExitCommands
 0002:000C4320       aWaitPersonDead
 0002:000C4331       aWaitAllGDead
 0002:000C4341       aWaitMemGDead
 0002:000C4351       aWaitPersonNear
 0002:000C4362       aWaitMemGNear
 0002:000C4372       aWaitPArrives
 0002:000C4381       aWaitMemGArrive_0
 0002:000C4394       aWaitTime
 0002:000C439E       aDoubleDot8
 0002:000C43A1       aFollowRoute
 0002:000C43AE       aGotoPerson
 0002:000C43BA       aKillPerson
 0002:000C43C6       aBlockPerson
 0002:000C43D3       aScarePerson
 0002:000C43E0       aWait
 0002:000C43E5       aUseItem
 0002:000C43EE       aWander
 0002:000C43F5       aDoubleDot9
 0002:000C43F8       aObjPersonDead
 0002:000C4408       aObjAllGDead
 0002:000C4417       aObjMemGDead
 0002:000C4426       aObjPArrives
 0002:000C4434       aObjAllGArrives
 0002:000C4446       aObjMemGArrives
 0002:000C4458       aObjGetItem
 0002:000C4465       aObjTime
 0002:000C446E       aDoubleDotA
 0002:000C4471       aEmpty
 0002:000C4472       aAgent
 0002:000C4478       aZealot
 0002:000C447F       aPunk
 0002:000C4484       aCiv1
 0002:000C4489       aCiv2
 0002:000C448E       aGov1
 0002:000C4493       aCop1
 0002:000C4498       aUzi
 0002:000C449C       aMinigun
 0002:000C44A4       aLaser1
 0002:000C44AB       aLaserElec
 0002:000C44B6       aRocket
 0002:000C44BD       aNukeGrenade
 0002:000C44CA       aHand2handTaser
 0002:000C44DA       aFlamer
 0002:000C44E1       aCrazyGas
 0002:000C44EB       aKnockoutGas
 0002:000C44F8       aElectricityMin
 0002:000C4509       aExplosiveMine
 0002:000C4518       aNapalmMine
 0002:000C4524       aMiniRocket
 0002:000C4530       aGuidedMissile
 0002:000C453F       aBeam
 0002:000C4544       aRazorWire
 0002:000C454F       aPesuadetron
 0002:000C455B       aSonicBlast
 0002:000C4567       aQuantumSeperat
 0002:000C4579       aQuantumVibrato
 0002:000C458A       aStasisField
 0002:000C4597       aEnergyShield
 0002:000C45A5       aSoulGun
 0002:000C45AE       aEmpty2
 0002:000C45AF       aEmpty3
 0002:000C45B0       aEmpty4
 0002:000C45B1       aEmpty5
 0002:000C45B2       aEmpty6
 0002:000C45B3       aEmpty7
 0002:000C45B4       aEmpty8
 0002:000C45B5       aNervousSystem1
 0002:000C45C6       aNervousSystem2
 0002:000C45D7       aNervousSystem3
 0002:000C45E8       aEpidermis1
 0002:000C45F4       aEpidermis2
 0002:000C4600       aEpidermis3
 0002:000C460C       aSkeletalSubsys
 0002:000C4621       aSkeletalSubsys_0
 0002:000C4636       aSkeletalSubsys_1
 0002:000C464B       aInternalOrgans
 0002:000C465D       aInternalOrgans_0
 0002:000C466F       aInternalOrgans_1
 0002:000C4682       aParanoid
 0002:000C468B       aDefensive
 0002:000C4695       aNeutral
 0002:000C469D       aAgressive
 0002:000C46A7       aPsychotic
 0002:000C46B2       aGotoPoint
 0002:000C46BD       aPatrolPoints
 0002:000C46CB       aWait_0
 0002:000C46D0       aWanderPoint
 0002:000C46DD       aDefendPerson
 0002:000C46EB       aFollowPerson
 0002:000C46F9       aKillPerson_0
 0002:000C4705       aUseItem_0
 0002:000C470E       aChangeDemeanor
 0002:000C471E       aHarrassPerson
 0002:000C472D       aFireWAtL
 0002:000C473D       aEnterCar
 0002:000C4747       aDriveToPoint
 0002:000C4756       aExitCar
 0002:000C4763       aMainMenu
 0002:000C476D       aInitThing
 0002:000C4778       aAddCommand
 0002:000C4784       aViewCurrent
 0002:000C4791       aDefineGroup
 0002:000C47AD       aExit_1
 0002:000C47B2       aInitMenu
 0002:000C47BC       aAgent_0
 0002:000C47C2       aSpider
 0002:000C47C9       aZealot_0
 0002:000C47D0       aCar
 0002:000C47E3       aMainMenu_0
 0002:000C47ED       aAddCommand_0
 0002:000C47F9       aGotoPoint_0
 0002:000C4804       aBombBuilding
 0002:000C4812       aWander_0
 0002:000C4819       aExplodeEffect
 0002:000C4828       aWait_1
 0002:000C483B       aMainMenu_1
 0002:000C4845       aSuccess
 0002:000C484D       aFail
 0002:000C4854       aErrorNewD
 0002:000C4864       aErrorNewNuclea
 0002:000C4881       aErrorNewScaleE
 0002:000C48A0       aErrorFindingBe
 0002:000C48C0       aErrorUnknownFr
 0002:000C48DA       aColour256
 0002:000C48E5       aSs2
 0002:000C48EA       aColour_1
 0002:000C48F2       aLc
 0002:000C48F6       aBlack
 0002:000C48FD       aBrun
 0002:000C4903       aCopy
 0002:000C4909       aPstamp
 0002:000C4914       aFromDUsedHeadD
 0002:000C4941       aSthingDNexDPar
 0002:000C495B       aSthingDNexDPar_0
 0002:000C497C       aStCountDC0DThI
 0002:000C49A4       aEsthingDNexDPa
 0002:000C49C5       aTtfromDUsedHea
 0002:000C49F3       aThingDNexDParD
 0002:000C4A0C       aThingDNexDParD_0
 0002:000C4A2C       aTCountDC0DThIt
 0002:000C4A53       aEthingDNexDPar
 0002:000C4A73       aD_13
 0002:000C4A76       aPointDXDYDZD
 0002:000C4A94       aErrorNewThingD
 0002:000C4AAA       aAddedPersonThi
 0002:000C4ACA       aErrorNewThingD_0
 0002:000C4AE0       aAddRandomPerso
 0002:000C4B0D       aInitThingsD
 0002:000C4B1E       aErrorRemoveSth
 0002:000C4B44       aNoNode
 0002:000C4B4F       aWaitingForGate
 0002:000C4B62       aGoneThroughMak
 0002:000C4B8E       aTurn2ArroundSp
 0002:000C4BA8       aDoTurn2Arround
 0002:000C4BC5       aTurnArroundSpe
 0002:000C4BDE       aBDoTurnArround
 0002:000C4BFC       aTurnArroundSpe_0
 0002:000C4C15       aDoTurnArroundS
 0002:000C4C31       aTurn2ArroundSp_0
 0002:000C4C4B       aDoTurn2Arround_0
 0002:000C4C68       aAngXDDiffxD
 0002:000C4C7D       aAquireXDZDType
 0002:000C4C9A       aAquiredTarget
 0002:000C4CAB       aProcessMounted
 0002:000C4CCC       aProcessMounted_1
 0002:000C4CE9       aProcessMounted_0
 0002:000C4D05       aLoadAPerson
 0002:000C4D14       aTriNewOverflow
 0002:000C4D27       aDefaultTri
 0002:000C4D33       aDefaultTri_0
 0002:000C4D3F       aRotateEdgeacLb
 0002:000C4D5C       aRotateEdgeacAN
 0002:000C4D78       aRotateEdgeacBN
 0002:000C4D94       aTriSplit3ANotF
 0002:000C4DAD       aTriSplit3BNotF
 0002:000C4DC6       aTriSplit2ANotF
 0002:000C4DDF       aInsertPointTri
 0002:000C4E01       aL002ldN02ldL10
 0002:000C4E1B       aDeletePointMak
 0002:000C4E41       aDeletePointNDL
 0002:000C4E5D       aDeletePoint4Fa
 0002:000C4E74       aDeletePoint3Fa
 0002:000C4E8B       aMakeEdgeBorder
 0002:000C4EA4       aThinWallBorder
 0002:000C4EBC       aEdgePointsEdge
 0002:000C4EE0       aNavigateHeapAd
 0002:000C4F02       aRouteToPathLoo
 0002:000C4F33       aExceededMaxPat
 0002:000C4F69       aExceededMaxPat_0
 0002:000C4F9F       aExceededMaxPat_1
 0002:000C4FCF       aExceededMaxPat_2
 0002:000C4FF5       aExceededMaxPat_3
 0002:000C501B       aPathInit8Imple
 0002:000C5044       aOhNoCanTMakeTr
 0002:000C506C       aOhNoCanTMakeTr_0
 0002:000C5094       aOhShitCanTMake
 0002:000C50BE       aNadsTrianglesD
 0002:000C50E8       aS_23
 0002:000C50EC       aS_22
 0002:000C50F0       aS_21
 0002:000C50F4       aX1DZ1DX2DZ2D
 0002:000C510E       aX1DZ1DX2DZ2D_0
 0002:000C5128       aStateDX1DZ1DX2
 0002:000C5150       aSD_0
 0002:000C5158       aNetbios
 0002:000C5160       aAddingS
 0002:000C516C       aAddedS
 0002:000C5178       aCallingSD
 0002:000C5188       aSessionEstabli
 0002:000C51A0       aErrorDecompres
 0002:000C51B8       aErrorAllocatio
 0002:000C51D0       aPressReturnToC
 0002:000C51EC       aErrorFileS
 0002:000C5200       aS_18
 0002:000C5204       aSb16Dig
 0002:000C5210       aSbawe32Mdi
 0002:000C521C       aMpu401Mdi
 0002:000C5228       aVesa
 0002:000C5230       aUndefinedConst
 0002:000C525C       aNullWav
 0002:000C5268       aComspec
 0002:000C5270       aCmdExe
 0002:000C5278       aCommandCom
 0002:000C5284       aCmd_0
 0002:000C5288       aCommand
 0002:000C5290       aSb16Dig_0
 0002:000C529C       aUltraDig
 0002:000C52A8       aJammerDig
 0002:000C52B4       aProaudioDig
 0002:000C52C4       aSndscapeDig
 0002:000C52D4       aAdrv688Dig
 0002:000C52E0       aRap10Dig
 0002:000C52EC       aSbproDig
 0002:000C52F8       aSblasterDig
 0002:000C5308       aCouldNotLoadAn
 0002:000C5330       aMdsound
 0002:000C5338       aSXDDD
 0002:000C5348       aS_19
 0002:000C534C       aDigIni
 0002:000C5354       aNone
 0002:000C535C       aCouldNotLoadAn_0
 0002:000C5384       aCouldNotLoadAn_1
 0002:000C53AC       aSbawe32Mdi_0
 0002:000C53B8       aUltraMdi
 0002:000C53C4       aSbpro2Mdi
 0002:000C53D0       aSbpro1Mdi
 0002:000C53DC       aMpu401Mdi_0
 0002:000C53E8       aMt32mpuMdi
 0002:000C53F4       aSndscapeMdi
 0002:000C5404       aAdlibgMdi
 0002:000C5410       aPasMdi
 0002:000C5418       aPasplusMdi
 0002:000C5424       aSblasterMdi
 0002:000C5434       aOpl3Mdi
 0002:000C5440       aAdlibMdi
 0002:000C544A       aRd
 0002:000C5450       aCSsoundSample
 0002:000C5464       aCSSoundSample
 0002:000C5478       aMdmusic
 0002:000C5480       aSXDDD_0
 0002:000C548F       aMS
 0002:000C5494       aMdiIni
 0002:000C549C       aNone_0
 0002:000C54A1       aT32f
 0002:000C54A8       aEsfmMdi
 0002:000C54B1       aApew
 0002:000C54B6       aDig
 0002:000C54BA       aOnr
 0002:000C54C0       aErrorDriverNot
 0002:000C54E0       aErrorOpeningMu
 0002:000C54FC       a02u02u02u02u
 0002:000C5520       aAilDebug
 0002:000C552C       aAilSysDebug
 0002:000C553C       aWT
 0002:000C5594       a303
 0002:000C559C       aAudioInterface
 0002:000C55E4       aStartTimeS
 0002:000C5648       aAilStartup
 0002:000C5658       aAilShutdown
 0002:000C5668       aAilSetPreferen
 0002:000C5684       aResultD
 0002:000C5691       aS_20
 0002:000C5694       aAilGetRealVect
 0002:000C56B0       aResult0xX
 0002:000C56C0       aAilSetRealVect
 0002:000C56E0       aAilSetUse16Isr
 0002:000C5700       aAilRestoreUse1
 0002:000C571C       aAilCallDriver0
 0002:000C5744       aAilDelayD
 0002:000C5754       aAilApiReadIni0
 0002:000C5770       aDriverS
 0002:000C5780       aDeviceS
 0002:000C5790       aIoX
 0002:000C57A0       aIrqD
 0002:000C57B0       aDma8D
 0002:000C57C0       aDma16D
 0002:000C57D0       aResultU
 0002:000C57E0       aAilRegisterTim
 0002:000C57FC       aAilSetTimerUse
 0002:000C5818       aAilSetTimerPer
 0002:000C5838       aAilSetTimerFre
 0002:000C5858       aAilSetTimerDiv
 0002:000C5878       aAilInterruptDi
 0002:000C5894       aAilStartTimerU
 0002:000C58AC       aAilStartAllTim
 0002:000C58C4       aAilStopTimerU
 0002:000C58D8       aAilStopAllTime
 0002:000C58F0       aAilReleaseTime
 0002:000C5910       aAilReleaseAllT
 0002:000C592C       aAilGetIoEnviro
 0002:000C594C       aAilInstallDriv
 0002:000C596C       aAilUninstallDr
 0002:000C5988       aAilInstallDigI
 0002:000C59A4       aAilInstallDigD
 0002:000C59CC       aAilUninstallDi
 0002:000C59EC       aAilAllocateSam
 0002:000C5A10       aAilAllocateFil
 0002:000C5A38       aAilReleaseSamp
 0002:000C5A5C       aAilInitSample0
 0002:000C5A74       aAilSetSampleFi
 0002:000C5A98       aAilSetSampleAd
 0002:000C5AC0       aAilSetSampleTy
 0002:000C5AE4       aAilStartSample
 0002:000C5AFC       aAilStopSample0
 0002:000C5B14       aAilResumeSampl
 0002:000C5B30       aAilEndSample0x
 0002:000C5B48       aAilSetSamplePl
 0002:000C5B70       aAilSetSampleVo
 0002:000C5B90       aAilSetSamplePa
 0002:000C5BB0       aAilSetSampleLo
 0002:000C5BD4       aAilSampleStatu
 0002:000C5BF0       aAilSamplePlayb
 0002:000C5C10       aAilSampleVolum
 0002:000C5C2C       aAilSamplePan0x
 0002:000C5C44       aAilSampleLoopC
 0002:000C5C64       aAilSetDigitalM
 0002:000C5C8C       aAilDigitalMast
 0002:000C5CB0       aAilInstallDigD_0
 0002:000C5CDC       aAilMinimumSamp
 0002:000C5D08       aAilSampleBuffe
 0002:000C5D28       aAilLoadSampleB
 0002:000C5D54       aAilSetSamplePo
 0002:000C5D78       aAilSamplePosit
 0002:000C5D94       aAilRegisterSob
 0002:000C5DBC       aAilRegisterEob
 0002:000C5DE4       aAilRegisterEos
 0002:000C5E0C       aAilRegisterEof
 0002:000C5E34       aAilSetSampleUs
 0002:000C5E5C       aAilSampleUserD
 0002:000C5E7C       aAilActiveSampl
 0002:000C5E9C       aAilInstallMdiI
 0002:000C5EB8       aAilInstallMdiD
 0002:000C5EE0       aAilUninstallMd
 0002:000C5F00       aAilAllocateSeq
 0002:000C5F24       aAilReleaseSequ
 0002:000C5F48       aAilInitSequenc
 0002:000C5F6C       aAilStartSequen
 0002:000C5F88       aAilStopSequenc
 0002:000C5FA4       aAilResumeSeque
 0002:000C5FC0       aAilEndSequence
 0002:000C5FD8       aAilSetSequence
 0002:000C5FFC       aAilSetSequence_0
 0002:000C6024       aAilSetSequence_1
 0002:000C604C       aAilSequenceSta
 0002:000C6068       aAilSequenceTem
 0002:000C6084       aAilSequenceVol
 0002:000C60A0       aAilSequenceLoo
 0002:000C60C0       aAilSetXmidiMas
 0002:000C60E8       aAilXmidiMaster
 0002:000C6108       aAilInstallMdiD_0
 0002:000C6134       aAilMdiDriverTy
 0002:000C6150       aAilSetGtlFilen
 0002:000C6174       aAilTimbreStatu
 0002:000C6194       aAilInstallTimb
 0002:000C61B4       aAilProtectTimb
 0002:000C61D4       aAilUnprotectTi
 0002:000C61F8       aAilActiveSeque
 0002:000C621C       aAilControllerV
 0002:000C6240       aAilChannelNote
 0002:000C625C       aAilSequencePos
 0002:000C6284       aResultDD
 0002:000C6294       aAilBranchIndex
 0002:000C62B0       aAilRegisterPre
 0002:000C62DC       aAilRegisterTri
 0002:000C6308       aAilRegisterSeq
 0002:000C6334       aAilRegisterBea
 0002:000C635C       aAilRegisterEve
 0002:000C6384       aAilRegisterTim_0
 0002:000C63B0       aAilSetSequence_2
 0002:000C63D8       aAilSequenceUse
 0002:000C63FC       aAilRegisterIca
 0002:000C6420       aAilLockChannel
 0002:000C6438       aAilReleaseChan
 0002:000C6458       aAilMapSequence
 0002:000C6480       aAilTrueSequenc
 0002:000C64A4       aAilSendChannel
 0002:000C64E0       aAilSendSysexMe
 0002:000C6504       aAilCreateWaveS
 0002:000C6534       aAilDestroyWave
 0002:000C6558       aFloatingPointS
 0002:000C657F       aBat
 0002:000C6584       aCom
 0002:000C6589       aExe
 0002:000C658E       aComspec_0
 0002:000C6596       aCmd
 0002:000C659A       aCommand_0
 0002:000C65A4       aLx
 0002:000C65A9       a123456789abcde_1
 0002:000C65BB       aHrt
 0002:000C65C0       aDriver
 0002:000C65C8       aDevice
 0002:000C65D0       aIoAddr
 0002:000C65D8       aIrq
 0002:000C65DC       aDma8Bit
 0002:000C65E8       aDma16Bit
 0002:000C65F4       aCorruptedIniFi
 0002:000C660C       aInsufficientMe
 0002:000C6638       aInsufficientLo
 0002:000C6654       aAil3dig
 0002:000C665C       aAil3mdi
 0002:000C6664       aInvalidDriverT
 0002:000C6679       aE
 0002:000C667C       aOutOfDriverHan
 0002:000C6694       aOutOfTimerHand
 0002:000C66AC       aSoundSoundDat
 0002:000C66BC       aSbawe32Mdi_1
 0002:000C66C8       aW
 0002:000C66CC       aSoundSSbk
 0002:000C66DC       aSoundMusicDat
 0002:000C66EC       aMinimumDmaBuff
 0002:000C6718       aCouldNotAlloca
 0002:000C6740       aDigDriverRequi
 0002:000C6758       aDigitalSoundHa
 0002:000C677C       aCouldNotAlloca_0
 0002:000C679C       aCouldNotAlloca_1
 0002:000C67C0       aCouldNotAlloca_2
 0002:000C67E8       aOutOfTimerHand_0
 0002:000C6800       aDriverFileNotF
 0002:000C6818       aDigIni_0
 0002:000C6820       aUnableToOpenFi
 0002:000C6840       aOutOfSampleHan
 0002:000C6858       aFmt
 0002:000C6860       aData
 0002:000C6868       aCreative
 0002:000C6874       aWave
 0002:000C687C       aUnrecognizedDi_0
 0002:000C68A4       aInvalidOrMissi_0
 0002:000C68C4       aUnrecognizedDi
 0002:000C68EC       aInvalidOrMissi
 0002:000C690C       aForm
 0002:000C6914       aCat
 0002:000C691C       aXmid
 0002:000C6924       aInternalNoteQu
 0002:000C6944       aCouldNotAlloca_3
 0002:000C696C       aMdiDriverRequi
 0002:000C6984       aXmidiSoundHard
 0002:000C69A4       aCouldNotInitia
 0002:000C69D0       aCouldNotAlloca_4
 0002:000C69F8       aOutOfTimerHand_1
 0002:000C6A10       aDriverFileNotF_0
 0002:000C6A28       aMdiIni_0
 0002:000C6A30       aUnableToOpenFi_0
 0002:000C6A50       aTandy3VoiceMus
 0002:000C6A64       aIbmInternalSpe
 0002:000C6A80       aAd
 0002:000C6A84       aOpl
 0002:000C6A8C       aOutOfSequenceH
 0002:000C6AA8       aInvalidXmidiSe
 0002:000C6AC0       aTimb
 0002:000C6AC8       aRbrn
 0002:000C6AD0       aEvnt
 0002:000C6AD8       aNoTimbresLoade
 0002:000C6AEC       aDriverCouldNot
 0002:000C6B20       aDriverCouldNot_0
 0002:000C6B54       aInsufficientMe_0
 0002:000C6B80       aNotEnoughMemor
 0002:000C6BB0       aRationalDos4g
 0002:000C6BC0       aTz
 0002:000C6BC4       aPath
 0002:000C6BCC       aInf
 0002:000C6BD0       aNan
 0002:000C6BDC       _IsTable
 0002:000C6D1B       aNeduit
 0002:000C6DEC       _vec_map
 0002:000C6DF8       _vec_window_width
 0002:000C6DFC       _vec_window_height
 0002:000C9B0C       x1
 0002:000C9B10       y1
 0002:000C9B14       x2
 0002:000C9B18       y2
 0002:000C9B20       a6
 0002:000C9B24       a7
 0002:000C9B28       a8
 0002:000C9B30       engn_xc
 0002:000C9B34       engn_zc
 0002:000C9B38       view_angle
 0002:000C9B3C       view_tilt
 0002:000C9BC4       unk01_load_files
 0002:000C9DCC       user_name
 0002:000C9E00       next_ex_face
 0002:000C9E04       next_local_mat
 0002:000C9E08       active_ed_menu
 0002:000C9E0C       unkn1_editor_state
 0002:000C9E12       prim4_textures_count
 0002:000C9E14       prim_face_textures_count
 0002:000C9E16       prim_object_points_count
 0002:000C9E18       prim_object_faces_count
 0002:000C9E1A       prim_object_faces4_count
 0002:000C9E1C       prim_objects_count
 0002:000C9E1E       next_traffic
 0002:000C9E20       next_mission
 0002:000C9E22       fifties_per_gameturn
 0002:000C9E24       next_anim_tmap
 0002:000C9E28       render_area_a
 0002:000C9E2A       render_area_b
 0002:000C9E2C       overall_scale
 0002:000C9E2E       next_normal
 0002:000C9E30       next_quick_light
 0002:000C9E32       next_full_light
 0002:000C9E34       next_face_texture
 0002:000C9E36       next_floor_texture
 0002:000C9E3A       next_object_point
 0002:000C9E3C       next_object_face
 0002:000C9E3E       next_object_face4
 0002:000C9E40       next_object
 0002:000C9E42       next_light_command
 0002:000C9E4A       commands_count
 0002:000C9E4C       game_action_enabled
 0002:000C9E52       col_vects_count
 0002:000C9E54       col_vects_list_count
 0002:000C9E56       walk_headers_count
 0002:000C9E58       walk_items_count
 0002:000C9E5C       total_buffer_use
 0002:000C9E68       x
 0002:000C9E6C       z
 0002:000C9E74       net_players_num
 0002:000C9E78       session_name
 0002:000C9E8C       W?unk02_load_files$n__$TbLoadFiles$$
 0002:000CA030       aSyn2PrototypeE
 0002:000CA1B8       quick_load
 0002:000CA3DC       quick_load_tracking
 0002:000CA680       unkn1_ed_menu
 0002:000CA70C       unkn2_ed_menu
 0002:000CA770       unkn3_ed_menu
 0002:000CA7E0       unkstruct0e_arr
 0002:000CA930       mapedit_file_menu
 0002:000CAA00       mapedit_lights_menu
 0002:000CAAD0       mapedit_special_menu
 0002:000CABE4       mapedit_top_menu
 0002:000CAC3C       ani_per_subtype
 0002:000CAE3A       fade_speed
 0002:000CAE44       mapedit_active_menu
 0002:000CAE46       bright
 0002:000CAE4A       unkn_ustr0E_indexes
 0002:000CAE74       maped_top_menu_enabled
 0002:000CAE7A       maped_unkn_ms_pos_x
 0002:000CAE7C       maped_unkn_ms_pos_y
 0002:000CAE82       unkn3_frameno
 0002:000CAE8C       miked_size
 0002:000CAEA8       str
 0002:000CAF0C       mapedit_menu
 0002:000CAFA8       aConfirmCritica
 0002:000CB028       u10_firstgo
 0002:000CB072       W_Ifreq
 0002:000CB074       S_damp
 0002:000CB078       X_gravity
 0002:000CB07A       view_rotation_auto
 0002:000CB114       W?unk03_load_files$n__$TbLoadFiles$$
 0002:000CB170       aHelloWorld
 0002:000CB1A4       maped_init_item_menu
 0002:000CB1EC       maped_edit_item_menu
 0002:000CB220       maped_missions_menu
 0002:000CB270       maped_commands_menu
 0002:000CB2FC       maped_pers_wait_menu
 0002:000CB360       maped_pers_cmd_menu
 0002:000CB3C4       maped_pers_obj_menu
 0002:000CB428       pers_type_names
 0002:000CB448       weapon_names
 0002:000CB4C8       mod_names
 0002:000CB500       pers_state_names
 0002:000CB6F4       aCBullfrogCdSyn_0
 0002:000CB720       W?MOD3$n[]xl
 0002:000CB758       NetworkService__Type
 0002:000CB794       aTester
 0002:000CDFB9       a1234567890Qwer
 0002:000CDFD6       aAsdfghjkl
 0002:000CDFE3       aZxcvbnm
 0002:000CE0A0       W?fade_started$nuc
 0002:000CE0AC       W?redraw_active_lock$nul
 0002:000CE0B4       W?lbMouseInstalled$nul
 0002:000CE0B8       minfo__XSpriteOffset
 0002:000CE0BC       minfo__YSpriteOffset
 0002:000CE0C0       sound_location
 0002:000CE168       sb16_mixer_set
 0002:000CE184       bitmap_font
 0002:000CE468       W?a_sample_is_fading$nyuc
 0002:000CE469       W?samples_currently_fading$nyuc
 0002:000CE690       __psp
 0002:000CE884       _SoundAble
 0002:000CE885       _SoundActive
 0002:000CE886       _SoundInstalled
 0002:000CE88C       _Sfx
 0002:000CE890       _EndSfxs
 0002:000CE894       _SfxData
 0002:000CE89C       _CurrentSoundMasterVolume
 0002:000CE8E4       _CurrentMusicMasterVolume
 0002:000CE8E8       _MusicInstalled
 0002:000CE8E9       _MusicAble
 0002:000CE8EA       _MusicAble_0
 0002:000CE8EC       _CurrentTempo
 0002:000CE8EE       _SongCurrentlyPlaying
 0002:000CE8F4       _Music
 0002:000CE8F8       _EndMusic
 0002:000CE902       _DangerMusicVolume
 0002:000CE903       _CurrentDangerMusicFadeDirection
 0002:000CE904       _DangerMusicFadeActive
 0002:000CE905       _DangerMusicAble
 0002:000CE906       _DangerMusicVolumeChange
 0002:000CE908       _AIL_locked
 0002:000CE9DE       aStackOverflow
 0002:000CE9F8       _MEM_free
 0002:000CEA10       aBullfrog
 0002:000CF660       aSample
 0002:000CF6E8       aTimb_0
 0002:000CF6F4       _locked_AILXDIG
 0002:000CF804       aPf
 0002:000CF810       aEst
 0002:000CF82F       aEdt
 0002:000E4220       view_rotation
 0002:000E4238       map_file_mcd_phase
 0002:000F423C       packet_rec_fh
 0002:000F524C       input_char
 0002:000F5284       ex_faces
 0002:0012D8DC       len
 0002:0013D810       ed_unkn_names
 0002:00143DC0       firstgo_object
 0002:00143DC6       unkn2_pos_x
 0002:00143DC8       unkn2_pos_y
 0002:00143DCA       unkn2_pos_z
 0002:00143DD8       selected_obj_node
 0002:00143DF8       editicon_data
 0002:00143DFC       ed_sprites
 0002:00143E00       ed_sprites_end
 0002:00143E08       textures_0
 0002:00155748       face_textures_0
 0002:00166CA0       unkstru30_arr
 0002:001793F0       unkrstr12_arr
 0002:00179BD4       traffic
 0002:00184044       cmdln_param_bcg
 0002:00184148       screen_data
 0002:0019B8F8       cmdln_param_map_index
 0002:0019B900       m_spr_inf
 0002:0019B904       W?m_spr_data$n[]ul
 0002:0019B908       W?m_sprites$n[]pn$TbSprite$$
 0002:0019B90C       W?m_sprites_end$n[]pn$TbSprite$$
 0002:0019B910       frame
 0002:0019B914       frame_end
 0002:0019B918       frame2
 0002:0019B91C       frame2_end
 0002:0019B920       melement_ani
 0002:0019B924       melement_ani_end
 0002:0019B928       nstart_ani
 0002:0019B92C       nstart_ani_end
 0002:0019D944       cmdln_param_d
 0002:0019D94B       unkn_edit_substate0
 0002:0019D94E       mapedit_file_action
 0002:0019D950       ingame__DisplayMode
 0002:0019D958       file_no_exists
 0002:0019D9C2       things_used
 0002:0019D9C4       sthings_used
 0002:0019D9C6       sthings_empty_head
 0002:0019D9CA       things_empty_head
 0002:0019D9CC       sthings_used_head
 0002:0019E0D0       shades_data
 0002:0019E16C       pktrec_mode
 0002:0019E16D       cmdln_pr_num
 0002:001EA1B4       need_draw_unk3
 0002:001EA1B8       col_vects
 0002:0021AEF8       col_vects_list
 0002:0026B038       BLOCK_bits_count
 0002:00292754       light_commands
 0002:002990CC       normals
 0002:002B464C       quick_lights
 0002:0031224C       full_lights
 0002:0032994C       textures
 0002:0033D68C       face_textures
 0002:0034D08C       things
 0002:0034D090       sthings
 0002:0034D094       user_heap
 0002:0039F228       object_points
 0002:003C3C18       object_faces
 0002:00438F18       object_faces4
 0002:004822F8       objects
 0002:0049E4F8       my_big_map
 0002:00526DF8       y
 0002:00526DFC       W?pointer_sprites$n[]pn$TbSprite$$
 0002:00526E00       W?pointer_sprites_end$n[]pn$TbSprite$$
 0002:00526E04       W?display_palette$npnuc
 0002:00526E08       title_palette
 0002:00526E0C       W?gui_strings_data$npc
 0002:00526E10       scratch_buf
 0002:00526E14       gui_strings
 0002:00526E3C       W?pointer_data$n__ul
 0002:00526E40       turns_delta
 0002:00526E44       gameturn
 0002:00526E48       players
 0002:005275F0       packets
 0002:005276C0       local_player_no
 0002:005276C1       W?exit_game$nuc
 0002:005276C2       in_network_game
 0002:005276C3       in_single_game
 0002:005276C4       cmdln_param_tf
 0002:005276C8       colour_lookup
 0002:005276D3       unkn_changing_color_1
 0002:005276D4       unkn_changing_color_2
 0002:005277CC       unkn_changing_color_counter1
 0002:005277D0       ingame__LastTmap
 0002:005277D4       ingame__Tmaps
 0002:00531DA5       pick_mode
 0002:00531DDC       maped_mouse_over_what
 0002:00531E7E       unkn_edit_substate1
 0002:00531E84       unkn5_largedt
 0002:00572C30       texture_walkable
 0002:00599FF8       u10_edit_mode
 0002:00599FF9       u10_edit_mode_old
 0002:0059A028       p_thing
 0002:0059A02C       stored_g3d_next_object_point
 0002:0059A030       stored_g3d_next_object_face
 0002:0059A034       stored_g3d_next_object
 0002:0059A038       stored_g3d_next_object_face4
 0002:0059A03C       stored_g3d_next_floor_texture
 0002:0059A040       stored_g3d_next_normal
 0002:0059A9F6       stored_global3d_inuse
 0002:0059AA2E       stored_g3d_next_local_mat
 0002:005AA5F8       subtype
 0002:005AA660       comedit__Thing
 0002:005AA960       animations__field_10
 0002:005AAD80       animations__field_4
 0002:005AAD94       animations__field_20
 0002:005AAD98       animations__field_24
 0002:005AADA4       animations__field_30
 0002:005AADAC       animations__FileHandle
 0002:005AADB4       things_init_times
 0002:005ABDC8       triangulation_0_ix_Triangles
 0002:005ABDD0       triangulation_0_Points__x
 0002:005ABDD4       triangulation_0_Points__y
 0002:005ABDE8       triangulation_0_Triangles__tri
 0002:005ABDEE       triangulation_0_Triangles__tri_2
 0002:005F8C48       triangulation_0_tri_initialised
 0002:006018F8       W?tree_val$n[]l
 0002:0060C8C0       W?tree_Ax8$nl
 0002:0060C8C4       W?tree_Ay8$nl
 0002:0060C8D8       W?tree_triA$nl
 0002:0060C8DC       W?tree_triB$nl
 0002:0060C8E4       W?tree_routelen$nl
 0002:00612EC0       W?Heap$n[]l
 0002:006132C4       W?heap_end$nl
 0002:006136C8       fringe_x1
 0002:006136CC       fringe_y1
 0002:006136D0       fringe_x2
 0002:006136D4       fringe_y2
 0002:006136D8       fringe_map
 0002:00613EF0       pway
 0002:00616EF8       lbDisplay__PhysicalScreen
 0002:00616EFC       lbDisplay__WScreen
 0002:00616F00       lbDisplay__GlassMap
 0002:00616F04       lbDisplay__FadeTable
 0002:00616F08       lbDisplay__GraphicsWindowPtr
 0002:00616F0C       lbDisplay__MouseSprite
 0002:00616F10       lbDisplay__PhysicalScreenWidth
 0002:00616F14       lbDisplay__PhysicalScreenHeight
 0002:00616F18       lbDisplay__GraphicsScreenWidth
 0002:00616F1C       lbDisplay__GraphicsScreenHeight
 0002:00616F20       lbDisplay__GraphicsWindowX
 0002:00616F24       lbDisplay__GraphicsWindowY
 0002:00616F28       lbDisplay__GraphicsWindowWidth
 0002:00616F2C       lbDisplay__GraphicsWindowHeight
 0002:00616F30       lbDisplay__MouseWindowX
 0002:00616F34       lbDisplay__MouseWindowY
 0002:00616F38       lbDisplay__MouseWindowWidth
 0002:00616F3C       lbDisplay__MouseWindowHeight
 0002:00616F40       lbDisplay__MouseX
 0002:00616F44       lbDisplay__MouseY
 0002:00616F48       lbDisplay__MMouseX
 0002:00616F4C       lbDisplay__MMouseY
 0002:00616F50       lbDisplay__DrawFlags
 0002:00616F52       lbDisplay__OldVideoMode
 0002:00616F54       lbDisplay__ScreenMode
 0002:00616F56       lbDisplay__VesaIsSetUp
 0002:00616F57       lbDisplay__LeftButton
 0002:00616F58       lbDisplay__RightButton
 0002:00616F59       lbDisplay__MiddleButton
 0002:00616F5A       lbDisplay__MLeftButton
 0002:00616F64       _lbKeyOn
 0002:00617064       _lbInkey
 0002:00617065       _lbShift
 0002:00617684       W?OldInt$npf()v
 0002:0061768A       W?oinkey$:.0$:?KInt$f()vnuc
 0002:0061768C       _lbExtendedKeyPress
 0002:00617694       mbuffer__X_cp
 0002:00617696       mbuffer__Y_cp
 0002:00617698       mplace_x_end
 0002:0061769A       mplace_y_end
 0002:0061769C       mouse_sprite_backup1_buf
 0002:006176A0       mspr_start_pos
 0002:006176A4       mbuffer__X
 0002:006176A6       mbuffer__Y
 0002:006176A8       mplace_x_end_cp
 0002:006176AA       mplace_y_end_cp
 0002:006176AC       mouse_sprite_backup2_buf
 0002:006176B0       mspr_start_pos_cp
 0002:006176B4       ms_SpriteBuf
 0002:006176BC       msbackup__GraphicsWindowX
 0002:006176C0       msbackup__GraphicsWindowY
 0002:006176C4       mbuffer__YOffset
 0002:006176C8       mbuffer__XOffset
 0002:006176CC       msbackup__GraphicsWindowHeight
 0002:006176D4       msbackup__GraphicsWindowWidth
 0002:006176D8       mbuffer__NotValid
 0002:006176E0       ms_DrawBuf
 0002:006176E8       ms_RestoreBuf1
 0002:006176EC       ms_RestoreBuf2
 0002:006176F4       minfo__SWidth
 0002:006176F6       minfo__SHeight
 0002:006176F8       minfo__Sprite
 0002:006176FC       mbuffer__Interline
 0002:00617700       mplace_y
 0002:00617702       mplace_x
 0002:006177C4       _lbVesaData
 0002:006177C8       _lbVesaPage
 0002:006177D4       W?sample_fade_handle$nl
 0002:006177D8       lbMemoryAvailable__TotalBytesUsed
 0002:006177DC       lbMemoryAvailable__LargestBlock
 0002:006177EC       memory_blocks_0_Size
 0002:006183E4       W?memory_arenas$n[]$mem_arena$$
 0002:006183EC       memory_arenas_m1_Child
 0002:00619604       _sample_id
 0002:00619A00       _end_sample_id
 0002:00619A04       _NumberOfSamples
 0002:00619B2C       _SongHandle
 0002:00619B30       _MusicDriver
 0002:00619B34       _DangerMusicFadeHandle
 0002:00619B44       _file
 0002:00619B48       _AIL_debug
 0002:00619B4C       _AIL_sys_debug
 0002:00619B58       _AIL_indent
 0002:00619BA0       argc
 0002:00619BA4       argv
 0002:0061A034       __doserrno
 0002:0061A038       _errno

Program entry point at 0001:00077E24
