
 Start         Length     Name                   Class
 0001:00000000 00012D030H cseg01                 CODE
 0002:00000000 000000096H cseg02                 CODE
 0003:00000000 00009FFE0H dseg03                 STACK
 0004:00000000 000001B58H dseg04                 DATA


  Address         Publics by Value

 0001:00010000       ___dbgtrap
 0001:00010003       ___begtext
 0001:00011B9C       main_
 0001:00011EE5       main_case_b
 0001:00011EF1       main_case_def
 0001:00012B60       nullsub_1
 0001:0003027C       game_setup_sub10
 0001:0003076C       game_setup_sub9
 0001:000309D4       game_setup_sub8
 0001:00030CFC       load_level
 0001:00033478       savegame_load
 0001:0003422C       savegame_write
 0001:00034CF4       read_conf_file
 0001:000351F8       nullsub_13
 0001:000351FC       PacketRecord_Close
 0001:00035324       play_intro
 0001:000353EC       W?init_syndwars$n()v
 0001:00035644       phony_mfree
 0001:0003565C       W?setup_host$n()l
 0001:0003595C       W?host_reset$n()v
 0001:000359C0       smack_malloc
 0001:000359E0       smack_malloc_free_all
 0001:000359F0       LbIffSave_
 0001:00036200       W?get_highest_file_no$n(pnaucpna)ul
 0001:0003643C       set_mouse_sprite
 0001:0003BC1C       load_packet
 0001:0003D820       load_mission_map_lvl
 0001:0003E18C       W?game_process$n()v
 0001:0003FDCC       unused_func_010
 0001:0003FE78       unused_func_011
 0001:00040434       unused_func_012
 0001:000408A4       unused_func_013
 0001:0004092C       game_setup_sub5
 0001:000409F8       unused_func_014
 0001:0004113C       game_setup_sub6
 0001:000415B8       unused_func_015
 0001:00041638       unused_func_016
 0001:00041668       W?game_setup$n()v
 0001:00041914       W?game_reset$n()v
 0001:00041928       unused_func_017
 0001:00041950       W?setup_language$n()v
 0001:00041A70       free_texturemaps
 0001:00041A80       veh_add
 0001:00041FDC       unused_func_018
 0001:00042060       unused_func_019
 0001:00042404       setup_screen_mode
 0001:00042A84       game_setup_sub11
 0001:00043A6C       unused_func_020
 0001:0004A7F8       nullsub_3
 0001:0004BA98       wander_fly
 0001:00050898       nav_goto_person
 0001:00062044       init_arrays_1
 0001:0006B138       nullsub_4
 0001:0006E604       play_smacker
 0001:0006F828       game_setup_sub4
 0001:0006F82C       nullsub_5
 0001:0006F9DC       nullsub_6
 0001:0006FAA8       nullsub_7
 0001:00074CDC       init_player
 0001:00075DDC       game_setup_sub7
 0001:0007E9AC       triangulation_select
 0001:0007EA80       tri_dispose
 0001:0007EAB4       tri_new
 0001:0007EB10       point_dispose
 0001:0007EB48       point_new
 0001:0007EB98       triangulation_init_edges
 0001:0007EC24       triangulation_initxy
 0001:0007ED68       triangulation_init
 0001:0007EDA0       triangulation_clear
 0001:0007EE5C       save_triangulation
 0001:0007EED8       pointed_at8
 0001:0007F5AC       triangle_find8
 0001:0007F950       point_find
 0001:0007FA3C       edge_find
 0001:0007FBE4       triangle_findSE8
 0001:0007FD8C       edge_rotateAC
 0001:00080230       tri_split3
 0001:000804DC       tri_split2
 0001:00080630       edge_split
 0001:00080720       line_intersect8
 0001:00080800       insert_point
 0001:00080A64       reduce_point
 0001:00080B24       make_3or4point
 0001:00080D44       delete_4point
 0001:00081218       delete_3point
 0001:00081540       delete_point
 0001:000816A4       unused_func_043
 0001:00081804       fill_concave
 0001:00081964       make_edge
 0001:00081DB4       quad_split
 0001:00081EAC       make_clip_list
 0001:00082308       make_clipped_edges
 0001:00082420       thin_wall
 0001:00082478       triangle_area1
 0001:000824E4       triangulation_area1
 0001:0008260C       fill_rectangle
 0001:000827A0       tri_set_rectangle
 0001:0008297C       edge_points8
 0001:00082B5C       W?triangle_route_do_fwd$n(llpnlpnl)l
 0001:00083128       triangle_route_do_bak
 0001:000836F8       ma_triangle_route
 0001:0008641C       optimise_heuristic
 0001:00086624       delaunay_step
 0001:00086704       fringe_scan
 0001:000867AC       fringe_get_rectangle
 0001:000868E0       triangulate_area
 0001:000869F8       triangulate_map
 0001:00086A14       fov_region
 0001:00086AB0       route_to_path
 0001:00086F04       path_init8_wide
 0001:00089CEC       unused_func_024
 0001:00089D90       unused_func_025
 0001:00089F90       unused_func_026
 0001:0008C510       LbIKeyboardOpen_
 0001:0008C554       LbIKeyboardClose_
 0001:0008C578       W?KInt$f()v_1
 0001:0008C7F0       unused_func_027
 0001:00090D30       unused_func_028
 0001:0009D460       unused_func_029
 0001:0009D4EC       unused_func_030
 0001:0009F5E0       show_date_time
 0001:000A3440       W?my_set_text_window$n(usususus)v
 0001:000A3A64       W?my_draw_text$n(sspnaus)us
 0001:000A4EDC       W?my_str_len$n(pna)ul
 0001:000ACF8C       unused_func_031
 0001:000B0E00       game_setup_sub1
 0001:000B0ED4       game_setup_sub2
 0001:000B75D8       draw_box_purple_list
 0001:000B7AFC       W?draw_purple_screen$n()v
 0001:000B8F48       format_debug_msg
 0001:000BAC50       unused_func_022
 0001:000BB3E0       unused_func_023
 0001:000BBC50       swap_screen
 0001:000C0A94       ariadne_initialise_route
 0001:000C19E8       nullsub_8
 0001:000C9050       nullsub_9
 0001:000D5870       load_credits_and_sound
 0001:000D6650       game_setup_sub3
 0001:000DAAB8       FIRE_process_flame
 0001:000DC6A0       LbMemoryAlloc_
 0001:000DC728       LbMemoryAllocLow_
 0001:000DC7AC       LbMemoryCheck_
 0001:000DC8B8       LbMemoryFree_
 0001:000DC920       LbMemoryGrow_
 0001:000DC9EC       LbMemoryReset_
 0001:000DCA68       LbMemorySetup_
 0001:000DCD64       LbMemoryShrink_
 0001:000DCDE8       W?split_arena$n(pn$mem_arena$$ul)uc
 0001:000DCE64       W?delete_arena$n(pn$mem_arena$$)v
 0001:000DCEAC       W?compare$n(pn$mem_block$$pn$1$)i
 0001:000DCEB0       W?dos_alloc$n(ul)ul
 0001:000DCF00       W?dos_free$n(us)v
 0001:000DD210       breakout_play_sub1
 0001:000DD620       breakout_play_sub2
 0001:000DDAE0       breakout_sub_DDAE0
 0001:000DE8FC       breakout_play
 0001:000DF8D0       FileNameTransformSW
 0001:000DF9E4       FileOpenInclCD
 0001:000E00A8       nullsub_10
 0001:000E00E0       W?process_sound_heap$n()v
 0001:000E0C90       LbScreenSetup_
 0001:000E0CC0       LbScreenIsModeAvailable_
 0001:000E0D00       LbScreenSetGraphicsWindow_
 0001:000E0E30       LbSpriteReset_
 0001:000E0E74       LbSpriteResetAll_
 0001:000E0EBC       LbSpriteSetup_
 0001:000E0F00       LbSpriteSetupAll_
 0001:000E0F48       LbSpriteDrawScaled_
 0001:000E0FD0       memset_
 0001:000E0FE8       mem_putc_
 0001:000E0FFB       sprintf_
 0001:000E1030       joy_grip_init
 0001:000E11A8       joy_grip_shutdown
 0001:000E3210       unused_off_E3210
 0001:000E3268       unused_func_058
 0001:000E3648       unused_func_059
 0001:000E368C       unused_off_E368C
 0001:000E36E4       unused_func_057
 0001:000E3A78       joy_grip_unknsub_08
 0001:000E3AD0       unused_func_055
 0001:000E3B48       unused_func_056
 0001:000E3BF8       unused_func_054
 0001:000E3C6C       unused_func_053
 0001:000E3CC0       unused_func_052
 0001:000E3E08       unused_off_E3E08
 0001:000E3E28       unused_func_049
 0001:000E3EE0       unused_func_050
 0001:000E3F54       unused_func_051
 0001:000E3FC8       unused_func_044
 0001:000E4128       unused_func_045
 0001:000E4188       unused_func_046
 0001:000E4220       unused_func_047
 0001:000E4240       unused_func_048
 0001:000E49E7       atoi_
 0001:000E4F7C       LbNetworkReset_
 0001:000E54C8       LbNetworkSetupIPXAddress_
 0001:000E581C       _cstart_
 0001:000E581E       aWatcomCC32RunT
 0001:000E5AAB       __exit_
 0001:000E5AAD       __do_exit_with_msg__
 0001:000E5AE8       __GETDS
 0001:000E5AF3       ___GETDSEnd_
 0001:000E5B00       LbSpriteDraw_
 0001:000E73A0       LbSqrL
 0001:000E7430       LbDrawBox_
 0001:000E7514       LbDrawBoxCoords_
 0001:000E7590       LbDrawLine_
 0001:000E79D8       W?draw_b_line$n(lllluc)v
 0001:000E7D00       LbSpriteDrawOneColour_
 0001:000E88F0       LbFileExists_
 0001:000E8914       LbFilePosition_
 0001:000E8940       LbFileOpen_
 0001:000E8A1C       LbFileClose_
 0001:000E8A44       LbFileSeek_
 0001:000E8AB8       LbFileRead_
 0001:000E8AF0       LbFileWrite_
 0001:000E8B28       LbFileLength_
 0001:000E8B7C       LbFileFindFirst_
 0001:000E8BC0       LbFileFindNext_
 0001:000E8BF4       LbFileFindEnd_
 0001:000E8C08       LbFileRename_
 0001:000E8C38       LbFileDelete_
 0001:000E8C60       W?convert_find_info$n(pn$TbFileFind$$)v
 0001:000E8E00       LbMousePlace_
 0001:000E8F58       LbMouseRemove_
 0001:000E9034       LbMouseChangeSpriteOffset_
 0001:000E906C       LbMouseChangeSprite_
 0001:000E91F4       LbMouseChangeMoveRatio_
 0001:000E926C       LbMouseSetup_
 0001:000E9414       LbMouseReset_
 0001:000E9498       LbMouseSuspend_
 0001:000E94FC       LbMouseSetWindow_
 0001:000E9568       LbMouseSetPosition_
 0001:000E9638       W?MouseHandler256$f(iii)v
 0001:000E99E4       W?adjust_point$n(pnlpnl)ul
 0001:000E9A88       W?mouse_setup_range$n()ul
 0001:000E9BA0       W?screen_place$n()l
 0001:000E9E58       W?screen_remove$n(ul)l
 0001:000EA32A       time_
 0001:000EA359       strrchr_
 0001:000EA373       toupper_
 0001:000EA390       strcmp_
 0001:000EA431       tolower_
 0001:000EA440       LbFileLengthRnc_
 0001:000EA50C       LbFileLoadAt_
 0001:000EA5AC       LbFileSaveAt_
 0001:000EA7D4       LbFileMakeFullPath_
 0001:000EAA2C       W?compare$n(pnapnaulul)i
 0001:000EAAB0       LbPaletteFade_
 0001:000EACA8       LbPaletteStopOpenFade_
 0001:000EACBC       LbPaletteFindColour_
 0001:000EB170       set_smack_malloc_
 0001:000EB178       set_smack_free_
 0001:000EB180       play_smk_
 0001:000EB1B8       W?play_smk_direct$n(pnall)l
 0001:000EB388       W?play_smk_via_buffer$n(pnall)l
 0001:000EB4EC       RADMALLOC
 0001:000EB508       RADFREE
 0001:000EB518       W?copy_to_screen$n(pnucululul)v
 0001:000EB7C0       InitAudio_
 0001:000EBA90       W?prepare_SB16_volumes$n()v
 0001:000EBBC0       W?reset_SB16_volumes$n()v
 0001:000EBC50       W?cbCDCountdown$n(ul)v
 0001:000EBCA0       GetCDAble_
 0001:000EBCB0       W?CDTrackPlaying$n()us
 0001:000EBCD0       InitRedbook_
 0001:000EBD10       PlayCDTrack_
 0001:000EBE10       PlayCDChunk_
 0001:000EBE70       PlayCDFromTrack_
 0001:000EBEE0       PauseCD_
 0001:000EBF20       ResumeCD_
 0001:000EBF60       StopCD_
 0001:000EBFB0       NumCDTracks_
 0001:000EBFD0       CDTrackInfo_
 0001:000EC030       CDAudioStatus_
 0001:000EC050       SetCDVolume_
 0001:000EC080       GetCDVolume_
 0001:000EC090       W?ConvertCDTime$n($CDTime$$)ul
 0001:000EC0F0       W?ConvertDOSCDTime$n(ul)$CDTime$$
 0001:000EC1A0       IsCDPlaying_
 0001:000EC1D0       W?CDHeadPosition$n()$CDTime$$
 0001:000EC210       FreeCD_
 0001:000EC240       StopMusicIfActive_
 0001:000EC2A0       GetNumberOfSamples_
 0001:000EC2B0       GetSoundAble_
 0001:000EC2C0       GetMusicAble_
 0001:000EC2D0       GetSoundActive_
 0001:000EC2E0       GetMusicActive_
 0001:000EC2F0       GetSoundInstalled_
 0001:000EC300       GetMusicInstalled_
 0001:000EC310       GetStereoSound_
 0001:000EC320       GetNumberOfSongs_
 0001:000EC330       GetCurrentSoundMasterVolume_
 0001:000EC340       GetCurrentMusicMasterVolume_
 0001:000EC350       GetSoundDriver_
 0001:000EC360       GetMusicDriver_
 0001:000EC370       GetSelected95MidiDevice_
 0001:000EC380       GetFirstSampleInfoStructure_
 0001:000EC390       GetLastSampleInfoStructure_
 0001:000EC3A0       GetSongHandle_
 0001:000EC3B0       GetCDSpeed_
 0001:000EC3DC       LbKeyboardClose_
 0001:000EC3E8       LbKeyboard_
 0001:000EC488       LbDosKeyboard_
 0001:000EC4F4       W?KInt$f()v
 0001:000EC660       LoadSounds_
 0001:000EC910       W?format_sounds$n()v
 0001:000EC970       W?load_sound_bank$n(luc)uc
 0001:000ECB90       AllocateSoundBankMemory_
 0001:000ECE30       LoadMusic_
 0001:000ED0B0       W?load_music_bank$n(luc)uc
 0001:000ED2B0       AllocateMusicBankMemory_
 0001:000ED4A0       FreeAudio_
 0001:000ED4F0       LbScreenSetupAnyMode_
 0001:000ED6EC       LbScreenClearGraphicsWindow_
 0001:000ED738       LbScreenClear_
 0001:000ED764       LbScreenReset_
 0001:000ED7B0       LbScreenLock_
 0001:000ED7BC       LbScreenUnlock_
 0001:000ED808       LbScreenFindVideoModes_
 0001:000ED8C0       LbScreenSwap_
 0001:000ED974       LbScreenSwapBoxClear_
 0001:000EDB44       LbScreenSwapClear_
 0001:000EDC48       LbScreenSwapBox_
 0001:000EDDD4       LbScreenDrawHVLineDirect_
 0001:000EE1C0       LbScreenWaitVbi_
 0001:000EE1D8       atol_
 0001:000EE245       __open_flags_
 0001:000EE316       __doopen_
 0001:000EE3DA       _fsopen_
 0001:000EE413       fopen_
 0001:000EE41D       close_file_
 0001:000EE485       freopen_
 0001:000EE4C7       fputc_
 0001:000EE56B       fclose_
 0001:000EE598       __shutdown_stream_
 0001:000EE5AD       __hex_
 0001:000EE5B9       __MkTmpFile_
 0001:000EE61E       __doclose_
 0001:000EE6B0       SetMusicMasterVolume_
 0001:000EE700       SetSoundMasterVolume_
 0001:000EE750       IsSamplePlaying_
 0001:000EE830       clock_
 0001:000EE840       LbPaletteGet_
 0001:000EE8A4       LbPaletteSet_
 0001:000EE910       StopAllSamples_
 0001:000EE9E6       rand_
 0001:000EEA0A       srand_
 0001:000EEA48       LbDataLoad_
 0001:000EEB78       LbDataLoadAll_
 0001:000EEC34       LbDataFree_
 0001:000EEC68       LbDataFreeAll_
 0001:000EECA0       LbVesaGetGran_
 0001:000EEDA8       LbVesaSetMode_
 0001:000EEE04       LbVesaSetPage_
 0001:000EEE84       LbVesaGetInfo_
 0001:000EEF48       LbVesaIsModeAvailable_
 0001:000EEFCA       __null_int23_exit_
 0001:000EEFCB       exit_
 0001:000EEFE3       _exit_
 0001:000EF000       DangerMusicFadeTick
 0001:000EF150       DangerMusicFadeSwitch
 0001:000EF290       SetSampleTempo
 0001:000EF2E0       SetSampleTempoNormal
 0001:000EF340       SetSampleRepeat
 0001:000EF3B0       SetSamplePitch_
 0001:000EF460       LbDrawTriangle_
 0001:000EF4F0       LbTextSetWindow_
 0001:000EF52C       LbTextSetJustifyWindow_
 0001:000EF57C       LbTextSetClipWindow_
 0001:000EF6A4       LbTextStringWidth_
 0001:000EF77C       LbTextWordWidth_
 0001:000EF800       LbTextStringHeight_
 0001:000EF874       LbTextDraw_
 0001:000F00C8       W?put_down_sprites$n(pnapnalll)v
 0001:000F0340       cb_get_trigger_info
 0001:000F0400       StartMusic_
 0001:000F065F       _dos_getvect_
 0001:000F0691       _dos_setvect_
 0001:000F06BE       cget_string_
 0001:000F06E7       uncget_string_
 0001:000F06EB       vsscanf_
 0001:000F0712       sscanf_
 0001:000F0740       LbDate_
 0001:000F07C0       LbTimerClock_
 0001:000F07E6       memmove_
 0001:000F0834       LbDrawHVLine_
 0001:000F0A20       SetSampleVolume_
 0001:000F0AB0       SetSamplePan_
 0001:000F0B38       int386_
 0001:000F0B55       _nfree_
 0001:000F0BD7       _nmalloc_
 0001:000F0CBA       _nexpand_
 0001:000F0CF2       __HeapManager_expand_
 0001:000F0EEA       byteswap_
 0001:000F0F10       med3_
 0001:000F0F68       qsort_
 0001:000F13A1       strncmp_
 0001:000F13CA       creat_
 0001:000F13D7       setmode_
 0001:000F1483       close_
 0001:000F14A3       open_
 0001:000F14C7       sopen_
 0001:000F16B0       __set_binary_
 0001:000F1720       StopSample_
 0001:000F1790       PlaySampleFromAddress_
 0001:000F19F0       __STOSB
 0001:000F1A27       __STOSD
 0001:000F1A93       __prtf_
 0001:000F1E32       getprintspecs_
 0001:000F1F70       evalflags_
 0001:000F1FCF       far_strlen_
 0001:000F1FF3       far_other_strlen_
 0001:000F2016       fmt4hex_
 0001:000F2074       FixedPoint_Format_
 0001:000F2169       float_format_
 0001:000F2170       formstring_
 0001:000F2659       zupstr_
 0001:000F29D6       _searchenv_
 0001:000F2ACA       __update_buffer_
 0001:000F2B0C       fseek_
 0001:000F2C08       ftell_
 0001:000F2C4A       fread_
 0001:000F3904       segread_
 0001:000F392C       int386x_
 0001:000FAB15       __CMain
 0001:000FAB64       __InitRtns
 0001:000FABAF       __FiniRtns
 0001:000FABFE       nullsub_15
 0001:000FABFF       __Init_Argv_
 0001:000FACC0       _SplitParms_
 0001:000FADD0       LbDrawBoxClip_
 0001:000FAF94       access_
 0001:000FAFCF       tell_
 0001:000FAFE0       lseek_
 0001:000FB023       read_
 0001:000FB11E       write_
 0001:000FB2F3       filelength_
 0001:000FB330       unknown_libname_1
 0001:000FB34D       unknown_libname_2
 0001:000FB369       unknown_libname_3
 0001:000FB36C       _dos_find_sub1
 0001:000FB3B2       rename_
 0001:000FB3E0       remove_
 0001:000FB3E5       __getctime_
 0001:000FB4A8       mktime_
 0001:000FB5FC       UnpackM1_
 0001:000FB7A2       input_value
 0001:000FB7E5       input_bits
 0001:000FB868       make_huftable
 0001:000FB9FC       LbErrorLog_
 0001:000FBA80       LbDirectoryChange__1
 0001:000FBAA8       LbDirectoryCreate_
 0001:000FBAD0       LbDirectoryCurrent_
 0001:000FBB60       LbDirectoryExists_
 0001:000FBBA8       LbDirectoryRemove_
 0001:000FBBD0       MSSLite_shutdown
 0001:000FBBF0       MSSLite_init
 0001:000FBC20       SMACKSOUNDUSEMSS
 0001:000FBCE0       MSSLOWSOUNDVOLPAN
 0001:000FBD50       MSSSMACKTIMERSETUP
 0001:000FBD90       MSSSMACKTIMERDONE
 0001:000FBE40       MSSSMACKTIMERREAD
 0001:000FBEC0       MSSLOWSOUNDCLOSE
 0001:000FBF40       MSSLOWSOUNDPURGE
 0001:000FBF80       MSSLOWSOUNDOPEN
 0001:000FC140       doinit_
 0001:000FC1D0       MSSLOWSOUNDPLAYED
 0001:000FC210       MSSLOWSOUNDCHECK
 0001:000FC340       SMACKWRAPCOPY
 0001:000FC3C0       SMACKWAIT
 0001:000FC4E0       SMACKSOUNDCHECK
 0001:000FC4F0       SMACKVOLUMEPAN
 0001:000FC570       SMACKSOUNDINTRACK
 0001:000FC5C0       SMACKTOBUFFERRECT
 0001:000FC840       SMACKGOTO
 0001:000FC870       SMACKGETTRACKDATA
 0001:000FC98C       SMACKCOLORREMAP
 0001:000FCCF0       SMACKCOLORTRANS
 0001:000FCD10       SMACKTOBUFFER
 0001:000FCF30       SMACKTOSCREEN
 0001:000FD490       PutWidths_
 0001:000FD4D0       SMACKNEXTFRAME
 0001:000FD680       timeframe_
 0001:000FD7A0       SMACKDOFRAME
 0001:000FF369       getenv_
 0001:000FF3D0       SoundProgressLog_
 0001:000FF3F0       InitSound_
 0001:000FFA90       DetermineSoundType_
 0001:000FFC60       InitMusic_
 0001:001004C0       InitAllBullfrogSoundTimers_
 0001:001004F0       SetupBullfrogSoundTimer_
 0001:00100570       ReleaseBullfrogSoundTimer_
 0001:001005C0       unused_func_041
 0001:001005E0       InitStreamedSound_
 0001:001006C0       FreeStreamedSound_
 0001:00100700       PlayStreamedSample_
 0001:00100C80       SwitchOffStreamedSound_
 0001:00100E70       W?play_adpcm_streamed_sample$n(pnall)v
 0001:00100EF0       W?monitor_adpcm_sound_track$n()v
 0001:00100FA0       W?allocate_buffers$n()l
 0001:00101000       W?free_buffers$n()v
 0001:00101080       W?monitor_mixed_sound_track$n()v
 0001:00101210       W?mix_to_buffer$n(pnspnsulll)l
 0001:00101330       W?findfirstfile$n(pnapna)pna
 0001:001015B0       CDSpeedTest_
 0001:001016D0       AILDEBUG_start_
 0001:00101780       _TIME_callback
 0001:001017F0       TIME_write_
 0001:001018A0       _AIL_startup
 0001:00101A40       _AIL_shutdown
 0001:00101AE0       _AIL_set_preference
 0001:00101C00       _AIL_lock
 0001:00101C10       _AIL_unlock
 0001:00101C20       _AIL_get_real_vect
 0001:00101D30       _AIL_set_real_vect
 0001:00101DC0       _AIL_set_USE16_ISR
 0001:00101E60       _AIL_restore_USE16_ISR
 0001:00101EE0       _AIL_disable_interrupts
 0001:00101EF0       _AIL_restore_interrupts
 0001:00101F00       _AIL_call_driver
 0001:00102030       _AIL_delay
 0001:001020B0       _AIL_background
 0001:001020C0       _AIL_read_INI
 0001:00102490       _AIL_register_timer
 0001:001025A0       _AIL_set_timer_user
 0001:001026C0       _AIL_set_timer_period
 0001:00102750       _AIL_set_timer_frequency
 0001:001027E0       _AIL_set_timer_divisor
 0001:00102870       _AIL_interrupt_divisor
 0001:00102980       _AIL_start_timer
 0001:00102A00       _AIL_start_all_timers
 0001:00102A70       _AIL_stop_timer
 0001:00102AF0       _AIL_stop_all_timers
 0001:00102B60       _AIL_release_timer_handle
 0001:00102BE0       _AIL_release_all_timers
 0001:00102C50       _AIL_get_IO_environment
 0001:00102D60       _AIL_install_driver
 0001:00102E80       _AIL_uninstall_driver
 0001:00102F00       _AIL_install_DIG_INI
 0001:00103010       _AIL_install_DIG_driver_file
 0001:00103130       _AIL_uninstall_DIG_driver
 0001:001031B0       _AIL_allocate_sample_handle
 0001:001032C0       _AIL_allocate_file_sample
 0001:001033E0       _AIL_release_sample_handle
 0001:00103460       _AIL_init_sample
 0001:001034E0       _AIL_set_sample_file
 0001:00103600       _AIL_set_sample_address
 0001:001036A0       _AIL_set_sample_type
 0001:00103740       _AIL_start_sample
 0001:001037C0       _AIL_stop_sample
 0001:00103840       _AIL_resume_sample
 0001:001038C0       _AIL_end_sample
 0001:00103940       _AIL_set_sample_playback_rate
 0001:001039D0       _AIL_set_sample_volume
 0001:00103A60       _AIL_set_sample_pan
 0001:00103AF0       _AIL_set_sample_loop_count
 0001:00103B80       _AIL_sample_status
 0001:00103C90       _AIL_sample_playback_rate
 0001:00103DA0       _AIL_sample_volume
 0001:00103EB0       _AIL_sample_pan
 0001:00103FC0       _AIL_sample_loop_count
 0001:001040D0       _AIL_set_digital_master_volume
 0001:00104160       _AIL_digital_master_volume
 0001:00104270       _AIL_install_DIG_driver_image
 0001:00104390       _AIL_minimum_sample_buffer_size
 0001:001044B0       _AIL_sample_buffer_ready
 0001:001045C0       _AIL_load_sample_buffer
 0001:00104660       _AIL_set_sample_position
 0001:001046F0       _AIL_sample_position
 0001:00104800       _AIL_register_SOB_callback
 0001:00104920       _AIL_register_EOB_callback
 0001:00104A40       _AIL_register_EOS_callback
 0001:00104B60       _AIL_register_EOF_callback
 0001:00104C80       _AIL_set_sample_user_data
 0001:00104D20       _AIL_sample_user_data
 0001:00104E40       _AIL_active_sample_count
 0001:00104F50       _AIL_install_MDI_INI
 0001:00105060       _AIL_install_MDI_driver_file
 0001:00105180       _AIL_uninstall_MDI_driver
 0001:00105200       _AIL_allocate_sequence_handle
 0001:00105310       _AIL_release_sequence_handle
 0001:00105390       _AIL_init_sequence
 0001:001054B0       _AIL_start_sequence
 0001:00105530       _AIL_stop_sequence
 0001:001055B0       _AIL_resume_sequence
 0001:00105630       _AIL_end_sequence
 0001:001056B0       _AIL_set_sequence_tempo
 0001:00105750       _AIL_set_sequence_volume
 0001:001057F0       _AIL_set_sequence_loop_count
 0001:00105880       _AIL_sequence_status
 0001:00105990       _AIL_sequence_tempo
 0001:00105AA0       _AIL_sequence_volume
 0001:00105BB0       _AIL_sequence_loop_count
 0001:00105CC0       _AIL_set_XMIDI_master_volume
 0001:00105D50       _AIL_XMIDI_master_volume
 0001:00105E60       _AIL_install_MDI_driver_image
 0001:00105F80       _AIL_MDI_driver_type
 0001:00106090       _AIL_set_GTL_filename_prefix
 0001:00106110       _AIL_timbre_status
 0001:00106230       _AIL_install_timbre
 0001:00106350       _AIL_protect_timbre
 0001:001063F0       _AIL_unprotect_timbre
 0001:00106490       _AIL_active_sequence_count
 0001:001065A0       _AIL_controller_value
 0001:001066C0       _AIL_channel_notes
 0001:001067E0       _AIL_sequence_position
 0001:00106900       _AIL_branch_index
 0001:00106990       _AIL_register_prefix_callback
 0001:00106AB0       _AIL_register_trigger_callback
 0001:00106BD0       _AIL_register_sequence_callback
 0001:00106CF0       _AIL_register_beat_callback
 0001:00106E10       _AIL_register_event_callback
 0001:00106F30       _AIL_register_timbre_callback
 0001:00107050       _AIL_set_sequence_user_data
 0001:001070F0       _AIL_sequence_user_data
 0001:00107210       _AIL_register_ICA_array
 0001:001072A0       _AIL_lock_channel
 0001:001073B0       _AIL_release_channel
 0001:00107440       _AIL_map_sequence_channel
 0001:001074E0       _AIL_true_sequence_channel
 0001:00107600       _AIL_send_channel_voice_message
 0001:001076B0       _AIL_send_sysex_message
 0001:00107740       _AIL_create_wave_synthesizer
 0001:00107870       _AIL_destroy_wave_synthesizer
 0001:001078F0       AILDEBUG_end_
 0001:00107920       GetCDTrackLength_
 0001:00107930       GetCDTrackStartSector_
 0001:00107940       is_daudio_track_
 0001:00107950       W?mmssff_to_sector$n(ul)ul
 0001:001079C0       W?cd_mem_init$n()us
 0001:00107A00       W?cd_check$n()ul
 0001:00107A80       W?cd_getheadlocationinfo$n(us)us
 0001:00107B70       cd_getdevicestatus_
 0001:00107C60       W?cd_getaudiodiscinfo$n(us)us
 0001:00107D60       W?cd_getaudiotrackinfo$n(usus)us
 0001:00107E50       W?cd_getqchannelinfo$n(us)us
 0001:00107F40       W?mscdex_version$n()ul
 0001:00107FA0       W?cd_getaudiostatusinfo$n(us)us
 0001:00108090       W?cd_seek$n(usul)us
 0001:00108160       cd_play_
 0001:00108250       cd_stop_
 0001:00108310       cd_resume_
 0001:001083D0       cd_init_
 0001:00108670       GetCDTracks_
 0001:00108680       cd_start_da_play_
 0001:001086E0       W?report_cd_head_location$n()v
 0001:00108790       W?time_diff$n($dostime_t$$$1$)ul
 0001:00108820       GetCDFirst_
 0001:00108830       W?start_cd_track$n(uc)i
 0001:00108890       FreeCDAudio_
 0001:001088F0       SetCDAudioVolume_
 0001:00108A40       GetCDAudioVolume_
 0001:00108BB0       StopMusic_
 0001:00108C60       FreeMusic_
 0001:00108D10       FreeSound_
 0001:00108D80       get_dword_159370
 0001:00108D90       LbMemoryCopy_
 0001:00108DC4       LbMemorySet_
 0001:00108DE7       __set_EDOM_
 0001:00108DEC       __set_errno_
 0001:00108DF8       __set_ERANGE_
 0001:00108DFF       __set_EINVAL_
 0001:00108E0F       __set_doserrno_
 0001:00108E1B       __allocfp_
 0001:00108EC1       __freefp_
 0001:00108EFA       __purgefp_
 0001:00108F18       __chktty_
 0001:00108F4A       __ioalloc_
 0001:00108FC1       __flush_
 0001:0010909A       get_dword_159104
 0001:001090A0       __close_
 0001:001090D5       clock_value_
 0001:00109130       __clock_init_
 0001:0010913B       __clock_
 0001:00109170       W?cbfadesample$n(ul)v
 0001:001093F0       FadeSample_
 0001:00109540       StopAllSampleFadeTimers_
 0001:001095A0       W?cb_sample_queue_callback$n(pn$_SAMPLE$$)v
 0001:00109660       PlaySampleList_
 0001:00109790       StopSampleQueueList_
 0001:00109869       printf_
 0001:0010988B       gets_
 0001:00109934       call_func1
 0001:0010993B       call_func2
 0001:00109943       __scnf_
 0001:00109B8A       get_opt_
 0001:00109C7F       scan_white_
 0001:00109CBE       scan_char_
 0001:00109D53       scan_string_
 0001:00109E76       report_scan_
 0001:00109ED4       makelist_
 0001:00109F17       scan_arb_
 0001:0010A011       scan_float_
 0001:0010A328       scan_int_
 0001:0010A518       radix_value_
 0001:0010A53F       cgetw_
 0001:0010A566       _dos_getdate_
 0001:0010A581       _dos_gettime_
 0001:0010A59C       __MemAllocator
 0001:0010A644       __MemFree
 0001:0010A74F       __unlink_
 0001:0010A7A0       __FreeDPMIBlocks_
 0001:0010A7FC       __ReAllocDPMIBlock_
 0001:0010A8FB       __LinkUpNewMHeap_
 0001:0010A96F       __LastFree_
 0001:0010A9BF       RationalAlloc_
 0001:0010AA90       __CreateNewNHeap_
 0001:0010AB40       __ExpandDGROUP_
 0001:0010AC8C       __AdjustAmount_
 0001:0010AD0C       __IOMode_
 0001:0010AD61       __SetIOMode_
 0001:0010AD76       isatty_
 0001:0010AD9D       _dosret0_
 0001:0010ADA4       _dosretax_
 0001:0010ADA8       __set_errno_dos_
 0001:0010AE19       _Alphabet
 0001:0010AE1A       a123456789abcde
 0001:0010AE3E       utoa_
 0001:0010AE88       itoa_
 0001:0010AEA3       W?_no_support_loaded$n()v
 0001:0010AEB5       _Alphabet_0
 0001:0010AEB6       a123456789abc_0
 0001:0010AEDA       ultoa_
 0001:0010AF24       ltoa_
 0001:0010AF3F       __get_errno_ptr_
 0001:0010AF45       __get_doserrno_ptr_
 0001:0010AF4B       getcwd_
 0001:0010AFD3       strlen_
 0001:0010AFEC       strcpy_
 0001:0010B00B       strcat_
 0001:0010B03E       fflush_
 0001:0010B04E       __qread_
 0001:0010B06D       fgetc_
 0001:0010B0F6       __filbuf_
 0001:0010B125       __fill_buffer_
 0001:0010B1DA       __CHK
 0001:0010B1EA       __GRO
 0001:0010B1ED       __STK
 0001:0010B20B       __STKOVERFLOW_
 0001:0010B21A       fprintf_
 0001:0010B23B       putch_
 0001:0010B24A       delay_
 0001:0010B250       __int386x_
 0001:0010B2AD       _DoINTR_
 0001:0010B2FA       _DoINTR_sub1
 0001:0010B801       stricmp_
 0001:0010B848       strnicmp_
 0001:0010C4FC       unused_func_035
 0001:0010C528       unused_func_036
 0001:0010C618       unused_func_037
 0001:0010C650       wcpp_error_undfcnstr
 0001:0010C664       wcpp_error_undfmembr
 0001:0010DC81       unused_sub_10DC81
 0001:0010DE30       __wcpp_2_module_dtor__
 0001:0010DE8C       W?fs_state_table$n(pn$ro_dtreg$$)pn$__7a4u3RO_STATE$$
 0001:0010DE90       W?fs_point_object$n(pn$rw_dtreg$$ui)pnv
 0001:0010DE97       W?fs_init_traverse$n(pn$__1j2o3bSTAB_TRAVERSE$$pn$rw_dtreg$$)v
 0001:0010DE9C       W?init$n()v
 0001:0010DEA7       __wcpp_2_mod_register__
 0001:0010DEB7       memcpy_
 0001:0010DEDC       outp_
 0001:0010DEE6       inp_
 0001:0010DEEE       sti_
 0001:0010DEF0       cli_
 0001:0010DEF4       W?fun_state_table$n(pn$ro_dtreg$$)pn$__7a4u3RO_STATE$$
 0001:0010DEF8       W?fun_point_object$n(pn$rw_dtreg$$ui)pnv
 0001:0010DF05       W?fun_init_traverse$n(pn$__1j2o3bSTAB_TRAVERSE$$pn$rw_dtreg$$)v
 0001:0010DF0A       W?init$n()v_0
 0001:0010DF15       __wcpp_2_fun_register__
 0001:0010DF28       __CommonInit_
 0001:0010DF92       __doserror_
 0001:0010DFA5       unlink_
 0001:0010DFC6       __leapyear_
 0001:0010E001       calc_yday_
 0001:0010E0E6       check_order_
 0001:0010E11A       __isindst_
 0001:0010E3DD       time_less_
 0001:0010E40D       __brktime_
 0001:0010E522       _gmtime_
 0001:0010E540       gmtime_
 0001:0010E54D       __CacheOSTZ_
 0001:0010E5A1       tryOSTimeZone_
 0001:0010E5B9       tzset_
 0001:0010E5C7       __parse_tz_
 0001:0010E5FE       parse_time_
 0001:0010E622       parse_offset_
 0001:0010E74B       parse_rule_
 0001:0010E920       LbLogSetup_
 0001:0010EA0C       LbLog_
 0001:0010ECB4       LbLogClose_
 0001:0010ED34       LbLogSetPrefix_
 0001:0010EDC8       LbLogDelete_
 0001:0010EE14       LbLogSuspend_
 0001:0010EE48       unused_func003
 0001:0010EE7C       mem_putc__0
 0001:0010EE8F       vsprintf_
 0001:0010EEA4       chdir_
 0001:0010EEC5       mkdir_
 0001:0010EEE6       stat_
 0001:0010F071       at2mode_
 0001:0010F0E1       rmdir_
 0001:0010F110       DEFSMACKTIMERSETUP
 0001:0010F150       nullsub_12
 0001:0010F160       DEFSMACKTIMERREAD
 0001:0010F16B       SMACKTIMERREAD_func
 0001:0010F1B0       _DLL_read
 0001:0010F210       _MEM_use_malloc
 0001:0010F220       _MEM_use_free
 0001:0010F230       _MEM_alloc_lock
 0001:0010F260       _MEM_free_lock
 0001:0010F290       _MEM_alloc_DOS
 0001:0010F2E0       _MEM_free_DOS
 0001:0010F2F0       _VMM_lock_range
 0001:0010F360       _VMM_unlock_range
 0001:0010F3D0       _AIL_vmm_lock
 0001:0010F3F0       _AIL_vmm_unlock
 0001:0010F410       _DLL_size
 0001:0010F550       _DLL_load
 0001:0010FAC0       _FILE_error
 0001:0010FAD0       _FILE_size
 0001:0010FB20       _FILE_read
 0001:0010FBF0       _FILE_write
 0001:0010FC80       _FILE_append
 0001:0010FD10       _AIL_fopen
 0001:0010FD31       _AIL_fremove
 0001:0010FD49       _AIL_fcreate
 0001:0010FD69       _AIL_fread
 0001:0010FDB5       _AIL_fwrite
 0001:0010FE01       _AIL_fseekbegin
 0001:0010FE25       _AIL_fseekcur
 0001:0010FE2B       _AIL_fseekend
 0001:0010FE31       _AIL_fclose
 0001:0010FE3F       _IsRemote
 0001:0010FE5D       _radgetfiletime
 0001:0010FE78       _radsetfiletime
 0001:0010FEA0       AllocDOSmem_
 0001:0010FEE0       FreeDOSmem_
 0001:0010FF20       CreateSelector_
 0001:0010FF60       GetDOSseg_
 0001:0010FFB0       AWEGetTotalRAM_
 0001:00110000       AWEDefMemMap_
 0001:001100B0       AWEGetSFInfo_
 0001:00110180       AWEStreamSample_
 0001:00110230       AWELoadPreset_
 0001:001102E0       AWEFreeMem_
 0001:00110340       LoadAwe32Soundfont_
 0001:001105E0       FreeAwe32Soundfont_
 0001:00110663       flushall_
 0001:00110668       __flushall_
 0001:00110697       setbuf_
 0001:001106C0       open_adpcm_file_
 0001:001109E0       close_adpcm_file_
 0001:00110A10       get_adpcm_block_
 0001:00110A40       W?get_adpcm_mono_block$n(pnvpnv)l
 0001:00110BE0       W?get_adpcm_stereo_block$n(pnvpnv)l
 0001:00110E48       _AIL_API_lock
 0001:00110E55       _AIL_API_unlock
 0001:00110E62       _API_timer
 0001:00110F88       _set_PIT_divisor
 0001:00110FB8       _set_PIT_period
 0001:00110FEB       _program_timers
 0001:00111050       _AILA_startup
 0001:0011113E       _AILA_shutdown
 0001:00111179       _AIL_API_get_real_vect
 0001:001111A5       _AIL_API_set_real_vect
 0001:001111CC       _thunk_proc
 0001:00111221       _AIL_API_set_USE16_ISR
 0001:00111437       _AIL_API_restore_USE16_ISR
 0001:0011147C       _AIL_API_disable_interrupts
 0001:00111480       _AIL_API_restore_interrupts
 0001:00111495       _AIL_switch_stack
 0001:001114CB       _AIL_restore_stack
 0001:001114E7       _AIL_API_call_driver
 0001:001115C1       _AIL_API_delay
 0001:001115FE       _AIL_API_background
 0001:0011160A       _AIL_API_register_timer
 0001:00111651       _AIL_API_set_timer_user
 0001:00111679       _AIL_API_release_timer_handle
 0001:001116A0       _AIL_API_release_all_timers
 0001:001116C4       _AIL_API_start_timer
 0001:001116F4       _AIL_API_start_all_timers
 0001:00111718       _AIL_API_stop_timer
 0001:00111748       _AIL_API_stop_all_timers
 0001:0011176C       _AIL_API_set_timer_period
 0001:0011179C       _AIL_API_set_timer_frequency
 0001:001117CC       _AIL_API_set_timer_divisor
 0001:0011180E       _AIL_API_interrupt_divisor
 0001:0011181A       _AILA_VMM_lock
 0001:00111840       AIL_start_
 0001:001118D0       _AIL_driver_server
 0001:00111920       _ASC_val
 0001:001119E0       _AIL_API_read_INI
 0001:00111D20       _AIL_API_set_preference
 0001:00111D40       _AIL_API_install_driver
 0001:00111FE0       _AIL_API_uninstall_driver
 0001:00112090       _AIL_API_get_IO_environment
 0001:00112110       _AIL_API_startup
 0001:00112230       _AIL_API_shutdown
 0001:00112280       AIL_end_
 0001:00112307       _localtime_
 0001:00112358       localtime_
 0001:00112365       convDec_
 0001:00112398       _asctime_
 0001:00112485       _ctime_
 0001:0011249E       ctime_
 0001:001124A3       asctime_
 0001:001124B0       AILSS_start_
 0001:00112570       _SS_start_DIG_driver_playback
 0001:001125C0       _SS_stop_DIG_driver_playback
 0001:001125F0       _SS_build_amplitude_tables
 0001:00112910       _SS_serve
 0001:00112B30       _SS_configure_buffers
 0001:00112F70       _SS_attempt_DIG_detection
 0001:00113070       _SS_destroy_DIG_driver
 0001:00113110       _SS_construct_DIG_driver
 0001:00113710       _AIL_API_install_DIG_driver_file
 0001:001137C0       _AIL_API_install_DIG_driver_image
 0001:00113800       _AIL_API_install_DIG_INI
 0001:00113880       _AIL_API_uninstall_DIG_driver
 0001:00113890       _AIL_API_active_sample_count
 0001:001138C0       _AIL_API_allocate_sample_handle
 0001:00113930       _AIL_API_release_sample_handle
 0001:00113940       _AIL_API_init_sample
 0001:00113A10       _AIL_API_sample_status
 0001:00113A20       _AIL_API_set_sample_address
 0001:00113A50       _AIL_API_set_sample_type
 0001:00113A80       _AIL_API_sample_playback_rate
 0001:00113A90       _AIL_API_set_sample_playback_rate
 0001:00113AA0       _AIL_API_sample_volume
 0001:00113AB0       _AIL_API_set_sample_volume
 0001:00113AD0       _AIL_API_sample_pan
 0001:00113AE0       _AIL_API_set_sample_pan
 0001:00113B00       _AIL_API_sample_position
 0001:00113B20       _AIL_API_set_sample_position
 0001:00113B40       _AIL_API_sample_loop_count
 0001:00113B60       _AIL_API_set_sample_loop_count
 0001:00113B70       _AIL_API_start_sample
 0001:00113BC0       _AIL_API_stop_sample
 0001:00113BE0       _AIL_API_resume_sample
 0001:00113C10       _AIL_API_end_sample
 0001:00113C60       _AIL_API_register_SOB_callback
 0001:00113C80       _AIL_API_register_EOB_callback
 0001:00113CA0       _AIL_API_register_EOS_callback
 0001:00113CC0       _AIL_API_set_sample_user_data
 0001:00113CE0       _AIL_API_sample_user_data
 0001:00113D00       _AIL_API_set_digital_master_volume
 0001:00113D40       _AIL_API_digital_master_volume
 0001:00113D60       _AIL_API_minimum_sample_buffer_size
 0001:00113E00       _AIL_API_load_sample_buffer
 0001:00113E60       _AIL_API_sample_buffer_ready
 0001:00113EC0       AILSS_end_
 0001:00113F80       AILSFILE_start_
 0001:00113FB0       _AIL_VOC_block_len
 0001:00113FC0       _AIL_VOC_terminate
 0001:00113FF8       _AIL_process_VOC_block__switch
 0001:00114020       _AIL_process_VOC_block
 0001:001142A0       _AIL_VOC_EOS
 0001:001142B0       _AIL_process_WAV_image
 0001:00114390       _AIL_WAV_EOS
 0001:001143D0       _AIL_API_allocate_file_sample
 0001:00114500       _AIL_API_set_sample_file
 0001:001145E0       _AIL_API_register_EOF_callback
 0001:00114600       AILSFILE_end_
 0001:00114630       AILXMIDI_start_
 0001:00114750       _XMI_message_size
 0001:001147B0       _XMI_flush_buffer
 0001:00114800       _XMI_MIDI_message
 0001:001148A0       _XMI_sysex_message
 0001:001148F0       _XMI_read_VLN
 0001:00114920       _XMI_swap
 0001:00114960       _XMI_find_sequence
 0001:00114A30       _XMI_read_log
 0001:00114BF0       _XMI_write_log
 0001:00114DE0       _XMI_send_channel_voice_message
 0001:00115240       _XMI_flush_note_queue
 0001:001152D0       _XMI_flush_channel_notes
 0001:00115340       _XMI_refresh_channel
 0001:00115580       _XMI_init_sequence_state
 0001:00115640       _XMI_rewind_sequence
 0001:00115660       _XMI_update_volume
 0001:001156A0       _XMI_serve
 0001:00115D70       _XMI_attempt_MDI_detection
 0001:00115E40       _XMI_destroy_MDI_driver
 0001:00115EA0       _XMI_construct_MDI_driver
 0001:001164F0       _AIL_API_install_MDI_driver_file
 0001:001165A0       _AIL_API_install_MDI_driver_image
 0001:001165E0       _AIL_API_install_MDI_INI
 0001:00116660       _AIL_API_uninstall_MDI_driver
 0001:00116670       _AIL_API_MDI_driver_type
 0001:00116720       _AIL_API_set_GTL_filename_prefix
 0001:001167A0       _AIL_API_allocate_sequence_handle
 0001:00116820       _AIL_API_release_sequence_handle
 0001:00116840       _AIL_API_init_sequence
 0001:00116B70       _AIL_API_start_sequence
 0001:00116BA0       _AIL_API_stop_sequence
 0001:00116C60       _AIL_API_resume_sequence
 0001:00116CD0       _AIL_API_end_sequence
 0001:00116D10       _AIL_API_set_sequence_loop_count
 0001:00116D20       _AIL_API_set_sequence_tempo
 0001:00116D90       _AIL_API_set_sequence_volume
 0001:00116E20       _AIL_API_sequence_status
 0001:00116E30       _AIL_API_sequence_loop_count
 0001:00116E50       _AIL_API_sequence_tempo
 0001:00116E60       _AIL_API_sequence_volume
 0001:00116E70       _AIL_API_set_XMIDI_master_volume
 0001:00116EC0       _AIL_API_XMIDI_master_volume
 0001:00116ED0       _AIL_API_timbre_status
 0001:00116F10       _AIL_API_install_timbre
 0001:00116FE0       _AIL_API_protect_timbre
 0001:00117020       _AIL_API_unprotect_timbre
 0001:00117060       _AIL_API_active_sequence_count
 0001:00117090       _AIL_API_controller_value
 0001:001170C0       _AIL_API_channel_notes
 0001:00117100       _AIL_API_sequence_position
 0001:00117170       _AIL_API_branch_index
 0001:00117200       _AIL_API_register_prefix_callback
 0001:00117220       _AIL_API_register_trigger_callback
 0001:00117240       _AIL_API_register_sequence_callback
 0001:00117260       _AIL_API_register_beat_callback
 0001:00117280       _AIL_API_register_event_callback
 0001:001172A0       _AIL_API_register_timbre_callback
 0001:001172C0       _AIL_API_set_sequence_user_data
 0001:001172E0       _AIL_API_sequence_user_data
 0001:00117300       _AIL_API_register_ICA_array
 0001:00117310       _AIL_API_lock_channel
 0001:001174A0       _AIL_API_release_channel
 0001:001175C0       _AIL_API_map_sequence_channel
 0001:00117600       _AIL_API_true_sequence_channel
 0001:00117620       _AIL_API_send_channel_voice_message
 0001:001176D0       _AIL_API_send_sysex_message
 0001:00117720       AILXMIDI_end_
 0001:00117830       XDIG_set_pitch__arr
 0001:00117A30       AILXDIG_start_
 0001:00117A60       _XMI_write_log_2
 0001:00117C30       WVL_search_
 0001:00117C60       XDIG_set_volume_
 0001:00117CE0       XDIG_set_pitch_
 0001:00117DF0       _XDIG_TIMB_trap
 0001:00117E20       _XDIG_MIDI_trap
 0001:00118240       _AIL_API_create_wave_synthesizer
 0001:001183C0       _AIL_API_destroy_wave_synthesizer
 0001:00118430       AILXDIG_end_
 0001:00118460       W?EAL_init_realmode_mem$n()us
 0001:001184D0       W?EAL_alloc_dos_mem$n(us)us
 0001:00118510       W?EAL_free_dos_mem$n(us)us
 0001:00118544       __InitFiles_
 0001:001185BB       __full_io_exit_
 0001:001185C7       fcloseall_
 0001:001185CC       docloseall_
 0001:00118624       __qwrite_
 0001:00118698       intdos_
 0001:001186E6       file_putc_
 0001:001186F7       __fprtf_
 0001:00118776       __FDFS
 0001:001187C2       unknown_libname_6
 0001:001187D2       sbrk_
 0001:0011889A       __brk_
 0001:00118965       __exit_with_msg_
 0001:0011896A       __fatal_runtime_error_
 0001:00118987       strncpy_
 0001:001189AC       getche_
 0001:001189C9       __delay_init_
 0001:001189FB       __delay_
 0001:0011B251       getch_
 0001:0011B4BC       __wcpp_2_fatal_runtime_error__
 0001:0011B4DC       W?nextDtorPosn$n(pn$__1j2o3bSTAB_TRAVERSE$$)pn$__7a4u3RO_STATE$$
 0001:0011B526       W?dtorComponent$n(pn$__iaap9DTOR_CMD$$uipn$rw_dtreg$$ui)v
 0001:0011B570       W?destruct_traverse$n(uipn$rw_dtreg$$i)v
 0001:0011B6A0       __wcpp_2_destruct_internal__
 0001:0011B6AA       __wcpp_2_destruct_all__
 0001:0011B6AC       __wcpp_2_destruct__
 0001:0011B6BE       __wcpp_2_destruct_after_all__
 0001:0011B6C0       __wcpp_2_destruct_after__
 0001:0011B6D0       __wcpp_2_base_register__
 0001:0011B6E9       __wcpp_2_base_deregister__
 0001:0011B6F6       __int23_handler_
 0001:0011B78B       __int_ctrl_break_handler_
 0001:0011B803       __DPMI_hosted_
 0001:0011B897       __restore_int23_
 0001:0011BA48       __restore_int_
 0001:0011BA4D       __restore_int_ctrl_break_
 0001:0011BA85       __grab_int23_
 0001:0011BBA0       __grab_int_ctrl_break_
 0001:0011BCBB       fprtf_
 0001:0011BCC0       strpbrk_
 0001:0011BD0A       fstat_
 0001:0011BE2C       _d2ttime_
 0001:0011BE92       strchr_
 0001:0011BEA6       __setenvp_
 0001:0011BF7A       _dos_read_
 0001:0011BFA4       _dos_write_
 0001:0011BFAB       setvbuf_
 0001:0011C012       fgets_
 0001:0011C07C       func_array001
 0001:0011C27C       func_array002
 0001:0011C67C       _DC_0
 0001:0011C68D       _DC_1
 0001:0011C699       _DC_16
 0001:0011C6B8       _DC_17
 0001:0011C6CC       _DC_18
 0001:0011C6EB       _DC_19
 0001:0011C6FF       _DC_24
 0001:0011C71C       _DC_25
 0001:0011C72E       _DC_26
 0001:0011C74B       _DC_27
 0001:0011C75D       _DC_32
 0001:0011C771       _DC_33
 0001:0011C780       _DC_36
 0001:0011C796       _DC_37
 0001:0011C7A7       _DC_48
 0001:0011C7C8       _DC_49
 0001:0011C7DE       _DC_50
 0001:0011C7FF       _DC_51
 0001:0011C815       _DC_52
 0001:0011C83A       _DC_53
 0001:0011C854       _DC_54
 0001:0011C879       _DC_55
 0001:0011C893       _DC_56
 0001:0011C8B6       _DC_57
 0001:0011C8CE       _DC_58
 0001:0011C8F1       _DC_59
 0001:0011C909       _DC_60
 0001:0011C930       _DC_61
 0001:0011C94C       _DC_62
 0001:0011C973       _DC_63
 0001:0011C98F       _DC_64
 0001:0011C9BC       _DC_65
 0001:0011C9E4       _DC_80
 0001:0011CA3D       _DC_81
 0001:0011CA8B       _DC_90
 0001:0011CAE4       _DC_83
 0001:0011CB32       _DC_88
 0001:0011CB89       _DC_89
 0001:0011CBD5       _DC_90a
 0001:0011CC2C       _DC_91
 0001:0011CC78       _DC_96
 0001:0011CCA8       _DC_97
 0001:0011CCD3       _DC_100
 0001:0011CD05       _DC_101
 0001:0011CD32       _DC_114
 0001:0011CD8D       _DC_113
 0001:0011CDDD       _DC_118
 0001:0011CE38       _DC_115
 0001:0011CE88       _DC_116
 0001:0011CEE7       _DC_117
 0001:0011CF3B       _DC_119
 0001:0011CF9A       _DC_122
 0001:0011CFEE       _DC_120
 0001:0011D04B       _DC_121
 0001:0011D09D       _DC_123
 0001:0011D0FA       _DC_126
 0001:0011D14C       _DC_124
 0001:0011D1AD       _DC_125
 0001:0011D203       _DC_127
 0001:0011D264       _DC_128
 0001:0011D2BA       _M_0
 0001:0011D2DE       _M_1
 0001:0011D305       _M_3
 0001:0011D33D       _M_7
 0001:0011D375       _M_8
 0001:0011D39C       _M_9
 0001:0011D3C6       _M_11
 0001:0011D400       _M_15
 0001:0011D43A       _M_16
 0001:0011D459       _M_17
 0001:0011D47B       _M_19
 0001:0011D4A8       _M_23
 0001:0011D4D5       _M_24
 0001:0011D4F7       _M_25
 0001:0011D51C       _M_27
 0001:0011D54B       _M_31
 0001:0011D57A       _M_32
 0001:0011D5A9       _M_33
 0001:0011D5DB       _M_35
 0001:0011D621       _M_39
 0001:0011D667       _M_40
 0001:0011D69C       _M_41
 0001:0011D6D4       _M_43
 0001:0011D71C       _M_47
 0001:0011D764       _M_48
 0001:0011D78E       _M_49
 0001:0011D7BB       _M_51
 0001:0011D7F6       _M_55
 0001:0011D831       _M_56
 0001:0011D861       _M_57
 0001:0011D894       _M_58
 0001:0011D8D1       _M_63
 0001:0011D90E       _M_64
 0001:0011D92A       _M_65
 0001:0011D950       _M_66
 0001:0011D97A       _M_67
 0001:0011D9A5       _M_70
 0001:0011D9CF       _M_71
 0001:0011D9FA       _M_72
 0001:0011DA27       _M_73
 0001:0011DA63       _M_74
 0001:0011DAA9       _M_75
 0001:0011DAF3       _M_78
 0001:0011DB39       _M_79
 0001:0011DB83       _M_88
 0001:0011DBAB       _M_89
 0001:0011DBE2       _M_90
 0001:0011DC1D       _M_91
 0001:0011DC5C       _M_94
 0001:0011DC97       _M_95
 0001:0011DCD6       _M_96
 0001:0011DCFD       _M_97
 0001:0011DD2E       _M_98
 0001:0011DD66       _M_99
 0001:0011DD9F       _M_102
 0001:0011DDD7       _M_103
 0001:0011DE10       _M_104
 0001:0011DE4B       _M_105
 0001:0011DE95       _M_106
 0001:0011DEE9       _M_107
 0001:0011DF41       _M_111
 0001:0011DF95       _M_112
 0001:0011DFED       _M_120
 0001:0011E023       _M_121
 0001:0011E068       _M_122
 0001:0011E0B1       _M_123
 0001:0011E0FE       _M_126
 0001:0011E147       _M_127
 0001:0011E194       _M_128
 0001:0011E1B8       _M_129
 0001:0011E1DF       _M_131
 0001:0011E21B       _M_135
 0001:0011E257       _M_136
 0001:0011E27E       _M_137
 0001:0011E2A8       _M_139
 0001:0011E2E6       _M_143
 0001:0011E324       _M_144
 0001:0011E343       _M_145
 0001:0011E365       _M_147
 0001:0011E396       _M_151
 0001:0011E3C7       _M_152
 0001:0011E3E9       _M_153
 0001:0011E40E       _M_155
 0001:0011E441       _M_159
 0001:0011E474       _M_160
 0001:0011E4A3       _M_161
 0001:0011E4D5       _M_163
 0001:0011E51F       _M_167
 0001:0011E569       _M_168
 0001:0011E59E       _M_169
 0001:0011E5D6       _M_171
 0001:0011E622       _M_175
 0001:0011E66E       _M_176
 0001:0011E698       _M_177
 0001:0011E6C5       _M_179
 0001:0011E704       _M_183
 0001:0011E743       _M_184
 0001:0011E773       _M_185
 0001:0011E7A6       _M_187
 0001:0011E7E7       _M_191
 0001:0011E828       _M_192
 0001:0011E844       _M_193
 0001:0011E86A       _M_194
 0001:0011E894       _M_195
 0001:0011E8C3       _M_198
 0001:0011E8ED       _M_199
 0001:0011E91C       _M_200
 0001:0011E949       _M_201
 0001:0011E985       _M_202
 0001:0011E9CB       _M_203
 0001:0011EA14       _M_206
 0001:0011EA5A       _M_207
 0001:0011EAA3       _M_216
 0001:0011EACB       _M_217
 0001:0011EB02       _M_218
 0001:0011EB3D       _M_219
 0001:0011EB7B       _M_222
 0001:0011EBB6       _M_223
 0001:0011EBF4       _M_224
 0001:0011EC1B       _M_225
 0001:0011EC4C       _M_226
 0001:0011EC84       _M_227
 0001:0011ECC1       _M_230
 0001:0011ECF9       _M_231
 0001:0011ED36       _M_232
 0001:0011ED71       _M_233
 0001:0011EDBB       _M_234
 0001:0011EE0F       _M_235
 0001:0011EE66       _M_238
 0001:0011EEBA       _M_239
 0001:0011EF11       _M_248
 0001:0011EF47       _M_249
 0001:0011EF8C       _M_250
 0001:0011EFD5       _M_251
 0001:0011F021       _M_254
 0001:0011F06A       _M_255
 0001:0011F0B6       _AILSSA_merge
 0001:0011F2DF       _AILSSA_DMA_copy
 0001:0011F372       _AILSSA_flush_buffer
 0001:0011F39E       _AILSSA_VMM_lock
 0001:0011F3CD       __EnterWVIDEO_
 0001:0011F748       _chain_intr_
 0001:0011F764       __wcpp_2_stab_entry__
 0001:0011F792       __wcpp_2_stab_trav_init__
 0001:0011F7B3       __wcpp_2_stab_trav_comp__
 0001:0011F7B8       __wcpp_2_stab_trav_next__
 0001:0011F83D       __wcpp_2_stab_trav_move__
 0001:0011F8D0       W?callTerminate$n(pn$thread_ctl$$)v
 0001:0011F8E7       __wcpp_2_corrupted_stack__
 0001:0011F8F8       W?typesigIndex$n(pn$dispatch_exc$$uipnpn$rt_type_sig$$)ui
 0001:0011F994       W?dispatchableFnExc$n(pn$dispatch_exc$$pn$__iaap9DTOR_CMD$$)i
 0001:0011F9BB       W?fneDispatch$n(pn$dispatch_exc$$)v
 0001:0011F9D1       W?dispatchableCatch$n(pn$dispatch_exc$$pn$__iaap9DTOR_CMD$$)i
 0001:0011F9F7       W?throwCnvSig$n(pn$dispatch_exc$$)pn$rt_type_sig$$
 0001:0011FA05       W?excToBePopped$n(pn$thread_ctl$$)i
 0001:0011FAA8       W?catchDispatch$n(pn$dispatch_exc$$)v
 0001:0011FBE6       W?catchDone$n(pn$thread_ctl$$pn$active_exc$$)v
 0001:0011FC23       __wcpp_2_catch_done__
 0001:0011FC44       W?unwindExc$n(pn$dispatch_exc$$)v
 0001:0011FC69       W?unwindStack$n(pn$dispatch_exc$$)v
 0001:0011FCBF       W?dispatchable$n(pn$dispatch_exc$$pn$rw_dtreg$$)$$TE$$
 0001:0011FDC0       W?getActiveExc$n(pn$thread_ctl$$)pn$active_exc$$
 0001:0011FE44       W?dispatch_init$n(pn$dispatch_exc$$pn$throw_ro$$i)v
 0001:0011FE7D       __wcpp_2_dispatchable__
 0001:0011FED6       __wcpp_2_save_exc__
 0001:0011FF54       __wcpp_2_dispatch__
 0001:00120005       W?processThrow$n(pnvpn$throw_ro$$i)v
 0001:0012004C       __wcpp_2_rethrow__
 0001:0012005C       __wcpp_2_throw__
 0001:00120066       __wcpp_2_throw_zero__
 0001:0012006E       W?longjmpExcPop$n(pn$dispatch_exc$$pn$rw_dtreg$$)v
 0001:001200B9       W?longjmpDtoring$n(pfv)v
 0001:00120159       W?longjmpInit$n()v
 0001:00120164       __wcpp_2_dtor_array__
 0001:00120191       __sigabort_
 0001:0012019B       __sigfpe_handler_
 0001:001201D0       signal_
 0001:00120285       raise_
 0001:00120347       __setbits_
 0001:00120388       __wcpp_2_bit_test__
 0001:001203A8       j_W?terminate$n()v
 0001:001203B0       W?catBaseSig$n(pn$rt_type_sig$$)pn$1$
 0001:001203B9       __wcpp_2_ts_equiv__
 0001:00120412       _setjmp_
 0001:00120447       longjmp_
 0001:001204CC       __wcpp_2_alloc_exc__
 0001:00120607       __wcpp_2_free_exc__
 0001:00120634       __wcpp_2_pop_exc__
 0001:00120643       __wcpp_2_push_exc__
 0001:00120650       nullsub_14
 0001:00120654       W?arr_state_table$n(pn$ro_dtreg$$)pn$__7a4u3RO_STATE$$
 0001:00120658       W?arr_point_object$n(pn$rw_dtreg$$ui)pnv
 0001:00120671       W?arr_init_traverse$n(pn$__1j2o3bSTAB_TRAVERSE$$pn$rw_dtreg$$)v
 0001:00120676       W?init$n()v_1
 0001:00120681       __wcpp_2_arr_register__
 0001:001206B1       abort_
 0001:001206B7       __terminate_
 0001:001206C9       GrabFP87_
 0001:001206D0       W?terminate$n()v
 0001:0012071C       W?unexpected$n()v
 0001:00120774       __wcpp_2_ts_size__
 0001:001207B5       __GrabFP87_
 0001:001207E6       __Init_FPE_handler_
 0001:00120843       __Fini_FPE_handler_
 0001:001208A0       __Enable_FPE_
 0001:001208B5       __FPEHandler_
 0001:001208C2       __FPE2Handler_
 0001:001208E0       __FPE2Handler_pt2
 0001:001209C8       __FPEHandler_sub1
 0001:00120A55       __FPEHandler_sub2
 0001:00120AA7       __FPEHandler_sub2_sub2
 0001:00120ACD       __FPEHandler_sub2_sub
 0001:00120AF2       __FPEHandler_subx_sub
 0001:00120B00       __Phar_hook_init_
 0001:00120BC3       __Phar_hook_fini_
 0001:00120BF0       __DOS4G_hook_init_
 0001:00120C1D       __DOS4G_hook_fini_
 0001:00120C36       __Ergo_hook_init_
 0001:00120C74       __Ergo_hook_fini_
 0001:00120C8E       __Intel_hook_init_
 0001:00120CE5       __Intel_hook_fini__0
 0001:00120CE6       __Intel_hook_fini_
 0001:00120CE8       __save_8087_
 0001:00120CED       __rest_8087_
 0001:00120CF1       __init_8087_
 0001:00120D22       _fpreset_
 0001:00120D2C       __chk8087_
 0001:00120D76       _do_nothing_
 0001:00120D78       __init_80x87
 0001:00120DA0       trig_
 0001:00127D43       setup_vecs_
 0001:00127DAF       poly_line_
 0001:00128380       draw_gpoly_
 0001:00136D20       LbSpriteDrawUsingScalingData_
 0001:00138598       LbSpriteSetScalingData_
 0001:001388AC       LbDrawTriangleFilled_
 0001:00139100       _SmackDoTables_subsub1
 0001:001391A0       _SmackDoTables_subsub2
 0001:00139490       _SmackDoTables_subsub3
 0001:00139500       _SmackDoTables_sub1
 0001:00139590       _SmackGetSizeTables
 0001:001395A0       _SmackDoTables
 0001:001398E0       _SmackDoTables_sub2
 0001:00139910       _SmackDoTables_sub3
 0001:00139940       _Smacksub_139940
 0001:0013A660       _Smacksub_13A660
 0001:0013A66C       _Smacksub_13A66C
 0001:0013A678       _Smacksub_13A678
 0001:0013A684       _Smacksub_13A684
 0001:0013A690       _Smacksub_13A690
 0001:0013A6A0       _Smacksub_13A6A0
 0001:0013A6B0       _Smacksub_13A6B0
 0001:0013A6C0       _Smacksub_13A6C0
 0001:0013A6D0       _Smacksub_13A6D0
 0001:0013A6DC       _Smacksub_13A6DC
 0001:0013A6E8       _Smacksub_13A6E8
 0001:0013A6F4       _Smacksub_13A6F4
 0001:0013A700       _Smacksub_13A700
 0001:0013A710       _Smacksub_13A710
 0001:0013A720       _Smacksub_13A720
 0001:0013A730       _Smacksub_13A730
 0001:0013A740       _Smacksub_13A740
 0001:0013A74C       _Smacksub_13A74C
 0001:0013A758       _Smacksub_13A758
 0001:0013A768       _Smacksub_13A768
 0001:0013A774       _Smacksub_13A774
 0001:0013A784       _Smacksub_13A784
 0001:0013A794       _Smacksub_13A794
 0001:0013A7A4       _Smacksub_13A7A4
 0001:0013A7B4       _Smacksub_13A7B4
 0001:0013A7C0       _Smacksub_13A7C0
 0001:0013A7CC       _Smacksub_13A7CC
 0001:0013A7D8       _Smacksub_13A7D8
 0001:0013A7E4       _Smacksub_13A7E4
 0001:0013A7F4       _Smacksub_13A7F4
 0001:0013A804       _Smacksub_13A804
 0001:0013A814       _Smacksub_13A814
 0001:0013A824       _Smacksub_13A824
 0001:0013A830       _Smacksub_13A830
 0001:0013A840       _Smacksub_13A840
 0001:0013A84C       _Smacksub_13A84C
 0001:0013A858       _Smacksub_13A858
 0001:0013A868       _Smacksub_13A868
 0001:0013A878       _Smacksub_13A878
 0001:0013A888       _Smacksub_13A888
 0001:0013A898       _Smacksub_13A898
 0001:0013A8A4       _Smacksub_13A8A4
 0001:0013A8B0       _Smacksub_13A8B0
 0001:0013A8BC       _Smacksub_13A8BC
 0001:0013A8C8       _Smacksub_13A8C8
 0001:0013A8D8       _Smacksub_13A8D8
 0001:0013A8E8       _Smacksub_13A8E8
 0001:0013A8F8       _Smacksub_13A8F8
 0001:0013A908       _Smacksub_13A908
 0001:0013A914       _Smacksub_13A914
 0001:0013A920       _Smacksub_13A920
 0001:0013A92C       _Smacksub_13A92C
 0001:0013A938       _Smacksub_13A938
 0001:0013A948       _Smacksub_13A948
 0001:0013A958       _Smacksub_13A958
 0001:0013A968       _Smacksub_13A968
 0001:0013A978       _Smacksub_13A978
 0001:0013A984       _Smacksub_13A984
 0001:0013A990       _Smacksub_13A990
 0001:0013A99C       _Smacksub_13A99C
 0001:0013A9A8       _Smacksub_13A9A8
 0001:0013A9B8       _Smacksub_13A9B8
 0001:0013A9C8       _Smacksub_13A9C8
 0001:0013A9D8       _Smacksub_13A9D8
 0001:0013A9E8       _Smacksub_13A9E8
 0001:0013A9F8       _Smacksub_13A9F8
 0001:0013AA08       _Smacksub_13AA08
 0001:0013AA18       _Smacksub_13AA18
 0001:0013AA28       _Smacksub_13AA28
 0001:0013AA34       _Smacksub_13AA34
 0001:0013AA40       _Smacksub_13AA40
 0001:0013AA50       _Smacksub_13AA50
 0001:0013AA5C       _Smacksub_13AA5C
 0001:0013AA68       _Smacksub_13AA68
 0001:0013AA74       _Smacksub_13AA74
 0001:0013AA80       _Smacksub_13AA80
 0001:0013AA8C       _Smacksub_13AA8C
 0001:0013AA9C       _Smacksub_13AA9C
 0001:0013AAAC       _Smacksub_13AAAC
 0001:0013AABC       _Smacksub_13AABC
 0001:0013AACC       _Smacksub_13AACC
 0001:0013AADC       _Smacksub_13AADC
 0001:0013AAEC       _Smacksub_13AAEC
 0001:0013AAFC       _Smacksub_13AAFC
 0001:0013AB0C       _Smacksub_13AB0C
 0001:0013AB18       _Smacksub_13AB18
 0001:0013AB20       _Smacksub_13AB20
 0001:0013AB2C       _Smacksub_13AB2C
 0001:0013AB38       _Smacksub_13AB38
 0001:0013AB44       _Smacksub_13AB44
 0001:0013AB50       _Smacksub_13AB50
 0001:0013AB58       _Smacksub_13AB58
 0001:0013AB64       _Smacksub_13AB64
 0001:0013AB74       _Smacksub_13AB74
 0001:0013AB84       _Smacksub_13AB84
 0001:0013AB94       _Smacksub_13AB94
 0001:0013ABA4       _Smacksub_13ABA4
 0001:0013ABB4       _Smacksub_13ABB4
 0001:0013C220       _Unsmack
 0001:0013C5F0       _SmackDoPCM
 0001:0013CE20       _SmackGetSizeDeltas
 0001:0013CE40       _SmackGetRect
 0001:0013CF60       _SmackRemapTables
 0002:00000000       ser_start_
 0002:00000002       com_port
 0002:00000004       func_body
 0002:0000007D       sdebugColors
 0003:00150100       poly_screen
 0003:00150104       _vec_screen
 0003:00150108       _vec_map
 0003:0015010C       _vec_pal
 0003:00150110       _vec_screen_width
 0003:00150114       _vec_window_width
 0003:00150118       _vec_window_height
 0003:0015011C       dither_map
 0003:00150120       dither_end
 0003:00150124       polyscans
 0003:00152E24       _vec_colour
 0003:00152E25       _vec_mode
 0003:00153054       unk01_load_files
 0003:0015315C       conf_file_cmnds
 0003:00153188       aCTmp
 0003:001531A0       mem_alloc_size
 0003:001531A8       user_name
 0003:00153248       session_name
 0003:00153268       fadedat_offs
 0003:00153274       _tables_start
 0003:00153278       tex00dat_offs
 0003:0015327C       wmstxt_offs
 0003:00153280       netscantxt_offs
 0003:00153284       citytxt_offs
 0003:00153288       bgmandat_offs
 0003:0015328C       bgmanzdat_offs
 0003:00153290       bgmanbdat_offs
 0003:00153294       sprojdat_offs
 0003:00153298       zprojdat_offs
 0003:0015329C       bprojdat_offs
 0003:001532E8       format
 0003:001532FC       fname
 0003:00153308       fmt
 0003:00153328       game_dirs
 0003:0015337C       unkn01_maskarr
 0003:001533A8       unk02_load_files
 0003:0015363C       aSyn2PrototypeEngine
 0003:001537B4       gameobjctv_names
 0003:00153820       objective_textnames
 0003:00153884       poo_textnames
 0003:001539C4       buffer_allocs
 0003:00154872       pointer_hotspot
 0003:00154AAC       person_st_text
 0003:00154BBC       control_keys_text
 0003:00154F0C       aConfirmCritica
 0003:001550D4       MOD3
 0003:001550F0       tag_current
 0003:00155138       a19200
 0003:00155140       a0000
 0003:00155148       a100
 0003:001553CC       proj_origin_m2
 0003:001553D0       W?proj_origin$n$StartScreenPoint$$
 0003:00155458       weapon_names
 0003:001554D8       aUnusedEmptyArray1
 0003:0015566C       objcount_text
 0003:00155878       breakout_levs
 0003:00155D74       _lbScreenModeInfo
 0003:0015622C       _lbSinTable
 0003:00158A2E       a1234567890Qwer
 0003:00158A4A       aAsdfghjkl
 0003:00158A57       aZxcvbnm_
 0003:00158AAE       a_Qwertyuiop
 0003:00158ACA       aAsdfghjkl@
 0003:00158AD7       aZxcvbnm?
 0003:00158B2C       _smack_malloc
 0003:00158B30       _smack_free
 0003:00158B34       W?InitialCDVolume$nc
 0003:00158B35       _CDAble
 0003:00158B50       ___nheapbeg
 0003:00158B5C       aGrip_gll
 0003:00158B68       aGrip
 0003:00158B70       aCGrip
 0003:00158DA2       aCSpacetec_off
 0003:00158DE4       W?com_dev$n[]$ComHandlerInfo$$
 0003:00158E54       com_results
 0003:00158FB4       modem_cmds
 0003:00159118       __cbyte
 0003:00159124       __no87
 0003:001592CC       _fss
 0003:001592D0       _SmackMSSDigDriver
 0003:001592D4       _MSSLiteInit
 0003:001592E0       _sounds
 0003:001592F0       _LowSoundOpenAddr
 0003:001592F4       _LowSoundOffAddr
 0003:00159300       MaxNumberOfSamples
 0003:00159304       _SoundAble
 0003:00159306       _SoundActive
 0003:00159308       _StereoSound
 0003:0015930C       _CurrentSoundMasterVolume
 0003:00159314       _CurrentMusicMasterVolume
 0003:00159318       _MusicAble
 0003:00159319       _MusicActive
 0003:0015931A       _CurrentDangerMusicFadeDirection
 0003:0015931B       _DangerMusicVolumeChange
 0003:0015931C       W?sample_file$nl
 0003:00159320       W?sample_volume$nl
 0003:00159324       W?active$nuc
 0003:00159328       _AIL_locked
 0003:0015932C       W?cd_errors$n[]pna
 0003:00159378       ___iob
 0003:00159580       ___tmpfnext
 0003:00159581       __fmode
 0003:00159585       _force
 0003:00159590       ___NFiles
 0003:00159594       ___init_mode
 0003:001595E4       __iomode
 0003:001595FC       ___umaskval
 0003:00159600       ___EFG_printf
 0003:00159604       ___EFG_scanf
 0003:0015960A       aStackOverflow
 0003:00159734       aEst
 0003:00159753       aEdt
 0003:00159780       _SmackTimerReadAddr
 0003:00159784       _SmackTimerDoneAddr
 0003:00159788       _disk_err
 0003:0015978C       _MEM_alloc
 0003:00159790       _MEM_free
 0003:00159850       smack_func_addr001
 0003:00159854       smack_func_addr002
 0003:00159858       smack_func_addr003
 0003:0015985C       smack_func_addr004
 0003:00159E48       aBullfrog
 0003:00159E54       handle
 0003:0015AADC       aSample
 0003:0015AB64       aTimb_0
 0003:0015AB70       _locked_AILXDIG
 0003:0015AB84       aDiademIncSign
 0003:0015AC6C       ___abort
 0003:0015BE98       __8087
 0003:0015BE99       __real87
 0003:0015BEB0       aGroupDTrucedWi
 0003:0015BECF       aAfterPlacePlay
 0003:0015BEE3       aAfterSimLevel
 0003:0015BEF4       aAfterGroupActi
 0003:0015BF08       aS_11
 0003:0015BF0B       aS_12
 0003:0015BF10       aEngine_c
 0003:0015BF19       aD_20
 0003:0015BF1D       aE
 0003:0015BF1F       aB
 0003:0015BF21       aD_21
 0003:0015BF24       aSMap03d_bB
 0003:0015BF33       aSAll03d_mis
 0003:0015BF42       aDataGenvehic_d
 0003:0015BF54       aDataWepdefs_da
 0003:0015BF65       aDataModdefs_da
 0003:0015BF76       aDataPeepdefs_d
 0003:0015BF88       aObj02d02d_dat
 0003:0015BF98       aSC03dl03d_dD
 0003:0015BFAA       aSC03dl03d_dat
 0003:0015BFBC       aLoadLevelResta
 0003:0015BFD5       aPlacedVehicle
 0003:0015BFE5       aQdataSavegam_2
 0003:0015BFFC       aQdataSavegam_3
 0003:0015C012       aQdataKeys_da_1
 0003:0015C021       aQdataKeys_da_2
 0003:0015C030       aAnon
 0003:0015C035       aSyndicate02d02
 0003:0015C051       aChurch02d02d02
 0003:0015C06A       aUnguided02d02d
 0003:0015C085       aS_idx
 0003:0015C08C       aS_wad
 0003:0015C093       aS_idx_0
 0003:0015C09A       aS_wad_0
 0003:0015C0A4       aConfig_ini
 0003:0015C0AF       aSlanguageSText
 0003:0015C0C6       aDataText_dat
 0003:0015C0D4       aQdataSavegameR
 0003:0015C0ED       aQdataSavegam_0
 0003:0015C107       aQdataSavegam_1
 0003:0015C121       aSlanguageSIntr
 0003:0015C139       aIntroIntro_smk
 0003:0015C149       aSsound
 0003:0015C151       aSound
 0003:0015C157       aSound_0
 0003:0015C15D       aSound_1
 0003:0015C163       aDataPopD1_dat
 0003:0015C174       aDataPopD1_tab
 0003:0015C185       aSetup_hostX
 0003:0015C197       aDataSynghost_t
 0003:0015C1A9       aCd
 0003:0015C1AC       aInstalldrive
 0003:0015C1B9       aLanguage
 0003:0015C1C2       aData_2
 0003:0015C1C7       aIntro
 0003:0015C1CD       aAnims
 0003:0015C1D3       aMaps_0
 0003:0015C1D8       aLevels_0
 0003:0015C1DF       aSound_4
 0003:0015C1E5       aDos
 0003:0015C1EC       aS5s
 0003:0015C1F3       a_lbm
 0003:0015C1F9       a03d_lbm
 0003:0015C202       aS_21
 0003:0015C205       aWb
 0003:0015C208       aSynii
 0003:0015C20E       aSSSTime02d02d0
 0003:0015C22B       aSSSHeure02d02d
 0003:0015C249       aSSSTempo02d02d
 0003:0015C267       aSSSZeit02d02d0
 0003:0015C284       aSSSTiempo02d02
 0003:0015C2A3       aSSSTid02d02d02
 0003:0015C2BF       aSSS
 0003:0015C2CC       aSprDWidthDHeig
 0003:0015C2EF       aD
 0003:0015C2F4       aCryo0DPlayer0D
 0003:0015C30B       aCryo1DPlayer1D
 0003:0015C322       aCryo2DPlayer2D
 0003:0015C339       aCryo3DPlayer3D
 0003:0015C350       aWscreenX
 0003:0015C35C       aId0TrialAllocD
 0003:0015C37C       aSS
 0003:0015C382       aC0DTruceX
 0003:0015C391       aCheckError
 0003:0015C39F       aPlayerSHasTime
 0003:0015C3BA       aYouHaveTimedOu
 0003:0015C3DD       aHostConnection
 0003:0015C3F3       aPlayerSIsOutOf
 0003:0015C410       aDataTables_dat
 0003:0015C420       aDataNsta0_ani
 0003:0015C430       aQdataSavegame8
 0003:0015C447       aQdataSavegameS
 0003:0015C45D       aQdataKeys_dat
 0003:0015C46C       aQdataKeys_da_0
 0003:0015C47C       aDataTex02d_dat
 0003:0015C48D       aDataTex02d_d_0
 0003:0015C49E       aDataTex02d_d_1
 0003:0015C4B0       aQdataPal_pal_1
 0003:0015C4BE       aDataFade_dat
 0003:0015C4CC       aDataSProj_pa_1
 0003:0015C4DC       aDataBgtables_1
 0003:0015C4EE       aDataTables_d_1
 0003:0015C4FE       aDataTex00_dat
 0003:0015C50D       aTextdataWms_tx
 0003:0015C51E       aTextdataNetsca
 0003:0015C533       aTextdataCity_t
 0003:0015C545       aQdataEquipBgma
 0003:0015C55B       aQdataEquipBg_0
 0003:0015C572       aQdataEquipBg_1
 0003:0015C589       aQdataSProj_dat
 0003:0015C59A       aQdataZProj_dat
 0003:0015C5AB       aDataBProj_dat
 0003:0015C5BB       aDataMapout02_0
 0003:0015C5CF       aDataMapinsid_0
 0003:0015C5E1       aQdataEquip
 0003:0015C5ED       aDataSynghost_1
 0003:0015C5FF       aDataIcons00_ta
 0003:0015C611       aDataIcons00_da
 0003:0015C623       aDataWIcons_tab
 0003:0015C634       aDataWIcons_dat
 0003:0015C645       aDataPanel00_ta
 0003:0015C657       aDataPanel00_da
 0003:0015C669       aDataMouse0_tab
 0003:0015C67A       aDataMouse0_dat
 0003:0015C68B       aData_0
 0003:0015C690       aDataMsprD_dat
 0003:0015C6A1       aQdataPalD_dat
 0003:0015C6B1       aDataPopD0_dat
 0003:0015C6C2       aDataPopD0_tab
 0003:0015C6D3       aQdataPrimveh_o
 0003:0015C6E5       aMaps
 0003:0015C6EA       aDataTmap_ani
 0003:0015C6F8       aTextdata
 0003:0015C701       aDataCitiesz_da
 0003:0015C712       aDataCitiesb_da
 0003:0015C723       aDataCities_dat
 0003:0015C733       aTextdataObj_tx
 0003:0015C744       aLevels
 0003:0015C74B       aQdataSavegam_4
 0003:0015C767       aQdataSavegam_5
 0003:0015C784       aQdataSavegam_6
 0003:0015C7A1       aTextdataNames_
 0003:0015C7B4       aQdataPosdefs
 0003:0015C7C2       aQdataAlltext
 0003:0015C7D0       aDataMsprD_tab
 0003:0015C7E2       aData_1
 0003:0015C7E7       aQdata
 0003:0015C7ED       aMaps_1
 0003:0015C7F2       aLevels_1
 0003:0015C7F9       aIntro_0
 0003:0015C7FF       aSound_5
 0003:0015C805       aDataEquip
 0003:0015C810       aGame_obj_null0
 0003:0015C811       aGame_obj_p_dea
 0003:0015C821       aGame_obj_all_g
 0003:0015C835       aGame_obj_mem_g
 0003:0015C849       aGame_obj_p_nea
 0003:0015C859       aGame_obj_mem_0
 0003:0015C86D       aGame_obj_p_arr
 0003:0015C880       aGame_obj_mem_1
 0003:0015C897       aGame_obj_all_0
 0003:0015C8AE       aGame_obj_persu
 0003:0015C8C2       aGame_obj_per_0
 0003:0015C8DA       aGame_obj_per_1
 0003:0015C8F2       aGame_obj_time
 0003:0015C900       aGame_obj_get_i
 0003:0015C912       aGame_obj_use_i
 0003:0015C924       aGame_obj_funds
 0003:0015C933       aGame_obj_destr
 0003:0015C94B       aGame_obj_pkill
 0003:0015C95C       aGame_obj_pki_0
 0003:0015C96D       aGame_obj_pki_1
 0003:0015C982       aGame_obj_use_p
 0003:0015C995       aGame_obj_null1
 0003:0015C996       aGame_obj_prote
 0003:0015C9A9       aGame_obj_p_per
 0003:0015C9BB       aGame_obj_all_1
 0003:0015C9D0       aGame_obj_null2
 0003:0015C9D1       aGame_obj_null3
 0003:0015C9D3       aObjctvAssassinate
 0003:0015C9DF       aObjctvElimGroup
 0003:0015C9EF       aObjctvKillGrpMem
 0003:0015C9FE       aObjctvRendezvous
 0003:0015CA09       aObjctvRendezvous2
 0003:0015CA15       aObjctvGotoLocation
 0003:0015CA23       aObjctvGotoLocatin2
 0003:0015CA31       aObjctvAllGotoLoc
 0003:0015CA43       aObjctvPersuade
 0003:0015CA4C       aObjctvPersGangMem
 0003:0015CA5E       aObjctvPersuadeAllGan
 0003:0015CA70       aObjctvTimer
 0003:0015CA76       aObjctvCollectItem
 0003:0015CA83       aObjctvUseItem
 0003:0015CA8C       aObjctvGetBullion
 0003:0015CA98       aObjctvDestroyBld
 0003:0015CAA9       aObjctvNeutralise
 0003:0015CAB4       aObjctvNeutraliseMem
 0003:0015CAC3       aObjctvNeutraliseG
 0003:0015CAD0       aObjctvUsePA_net
 0003:0015CADC       aObjctvPoo5
 0003:0015CAE1       aObjctvProtectGrp
 0003:0015CAEF       aObjctvPeepPersAll
 0003:0015CB01       aObjctvUseVehicle
 0003:0015CB0D       aObjctvPoo9
 0003:0015CB12       aObjctvPoo10
 0003:0015CB18       aObjctvPoo11
 0003:0015CB1E       aObjctvPoo12
 0003:0015CB24       aMy_big_map_0
 0003:0015CB32       aTextures_0
 0003:0015CB3F       aFace_textures
 0003:0015CB50       aObject_points
 0003:0015CB61       aObject_faces
 0003:0015CB71       aObjects
 0003:0015CB87       aQuick_lights
 0003:0015CB97       aFull_lights
 0003:0015CBA6       aNormals
 0003:0015CBB2       aObject_faces4
 0003:0015CBC3       aAnim_tmaps
 0003:0015CBD1       aTraffic_nodes
 0003:0015CBE2       aLight_commands
 0003:0015CBF3       aCol_vects_list
 0003:0015CC04       aCol_vects
 0003:0015CC12       aWalk_headers
 0003:0015CC22       aWalk_items
 0003:0015CC30       aCol_columns
 0003:0015CC45       aPrim4_textures
 0003:0015CC5A       aPrim_face_text
 0003:0015CC6E       aPrim_object_po
 0003:0015CC83       aPrim_object_fa
 0003:0015CC97       aPrim_object__0
 0003:0015CCAC       aPrim_objects
 0003:0015CCC1       aSpecial_object
 0003:0015CCD7       aSpecial_obje_0
 0003:0015CCEE       aFloor_tiles
 0003:0015CCFD       aUsed_objective
 0003:0015CD0F       aObjectives
 0003:0015CD1D       aUser_heap
 0003:0015CD2B       aScreen_point_p
 0003:0015CD3F       aDraw_list
 0003:0015CD4D       aSort_sprites
 0003:0015CD5D       aSort_lines
 0003:0015CD6B       aCommands
 0003:0015CD78       aBezEdit
 0003:0015CD85       aSpareMapBuffer
 0003:0015CD9C       aUsed_lvl_objec
 0003:0015CDB1       aLevel_miscs
 0003:0015CDC0       aSt_null
 0003:0015CDC1       aSt_goto_point
 0003:0015CDCF       aSt_bomb_buildi
 0003:0015CDE0       aSt_wander
 0003:0015CDEA       aSt_explode_eff
 0003:0015CDFC       aSt_wait
 0003:0015CE04       aSt_agent_defen
 0003:0015CE17       aSt_pickup_item
 0003:0015CE26       aSt_drop_item
 0003:0015CE33       aSt_shoot_perso
 0003:0015CE4D       aSt_shoot_bgun_
 0003:0015CE5E       aSt_die
 0003:0015CE65       aSt_dieing
 0003:0015CE6F       aSt_dead
 0003:0015CE77       aSt_init_save_v
 0003:0015CE8B       aSt_save_victim
 0003:0015CE9A       aSt_goto_person
 0003:0015CEA9       aSt_wait_p_dead
 0003:0015CEB8       aSt_wait_all_g_
 0003:0015CECB       aSt_wait_mem_g_
 0003:0015CEDE       aSt_wait_p_near
 0003:0015CEED       aSt_wait_mem__0
 0003:0015CF00       aSt_wait_p_arri
 0003:0015CF12       aSt_wait_mem__1
 0003:0015CF28       aSt_wait_time
 0003:0015CF35       aSt_define_rout
 0003:0015CF45       aSt_Unused
 0003:0015CF4D       aSt_kill_person
 0003:0015CF5C       aSt_block_perso
 0003:0015CF6C       aSt_scare_perso
 0003:0015CF7C       aSt_use_item
 0003:0015CF89       aSt_stationary_
 0003:0015CF9C       aSt_recoil_hit
 0003:0015CFAA       aSt_v_parked
 0003:0015CFB6       aSt_v_driven
 0003:0015CFC2       aSt_goto_point_
 0003:0015CFD4       aSt_person_burn
 0003:0015CFE6       aSt_in_vehicle
 0003:0015CFF4       aSt_driving_veh
 0003:0015D007       aSt_v_goto_poin
 0003:0015D01B       aSt_persuade_pe
 0003:0015D02E       aSt_follow_pers
 0003:0015D03F       aSt_support_per
 0003:0015D051       aSt_protect_per
 0003:0015D063       aSt_get_item
 0003:0015D06F       aSt_use_vehicle
 0003:0015D07E       aSt_use_vehic_0
 0003:0015D096       aSt_wait_vehicl
 0003:0015D0A6       aSt_goto_vehicl
 0003:0015D0B6       aSt_catch_train
 0003:0015D0C5       aSt_wait_train
 0003:0015D0D3       aSt_destroy_bui
 0003:0015D0E7       aSt_wander_driv
 0003:0015D0F7       aSt_go_plant_mi
 0003:0015D108       aSt_wait_to_exi
 0003:0015D120       aSt_catch_ferry
 0003:0015D12F       aSt_exit_ferry
 0003:0015D13D       aSt_avoid_group
 0003:0015D14C       aSt_undef58
 0003:0015D14D       aSt_undef59
 0003:0015D14E       aSt_undef60
 0003:0015D14F       aSt_undef61
 0003:0015D150       aSt_undef62
 0003:0015D151       aSt_undef63
 0003:0015D152       aSt_undef64
 0003:0015D153       aSt_undef65
 0003:0015D154       aKbEscape
 0003:0015D15B       aKb1
 0003:0015D15D       aKb2
 0003:0015D15F       aKb3
 0003:0015D161       aKb4
 0003:0015D163       aKb5
 0003:0015D165       aKb6
 0003:0015D167       aKb7
 0003:0015D169       aKb8
 0003:0015D16B       aKb9
 0003:0015D16D       aKb0
 0003:0015D16F       aKbMinus
 0003:0015D171       aKbEqu
 0003:0015D173       aKbBackspace
 0003:0015D17D       aKbTab
 0003:0015D181       aKbQ
 0003:0015D183       aKbW
 0003:0015D185       aKbE
 0003:0015D187       aKbR
 0003:0015D189       aKbT
 0003:0015D18B       aKbY
 0003:0015D18D       aKbU
 0003:0015D18F       aKbI
 0003:0015D191       aKbO
 0003:0015D193       aKbP
 0003:0015D195       aKbOSq
 0003:0015D197       aKbCSq
 0003:0015D199       aKbReturn
 0003:0015D1A0       aKbLeftCtrl
 0003:0015D1AA       aKbA
 0003:0015D1AC       aKbS
 0003:0015D1AE       aKbD
 0003:0015D1B0       aKbF
 0003:0015D1B2       aKbG
 0003:0015D1B4       aKbH
 0003:0015D1B6       aKbJ
 0003:0015D1B8       aKbK
 0003:0015D1BA       aKbL
 0003:0015D1BC       aKbSemiclm
 0003:0015D1BE       aKbUClm
 0003:0015D1C0       aKbUClmb
 0003:0015D1C2       aKbLeftShift
 0003:0015D1CD       aKbHash
 0003:0015D1CF       aKbZ
 0003:0015D1D1       aKbX
 0003:0015D1D3       aKbC
 0003:0015D1D5       aKbV
 0003:0015D1D7       aKbB
 0003:0015D1D9       aKbN
 0003:0015D1DB       aKbM
 0003:0015D1DD       aKbComa
 0003:0015D1DF       aKbDot
 0003:0015D1E1       aKbSlash
 0003:0015D1E3       aKbRightShift
 0003:0015D1EF       aKbKpAster
 0003:0015D1F4       aKbLeftAlt
 0003:0015D1FD       aKbSpace
 0003:0015D203       aKbCapslock
 0003:0015D20C       aKbF1
 0003:0015D20F       aKbF2
 0003:0015D212       aKbF3
 0003:0015D215       aKbF4
 0003:0015D218       aKbF5
 0003:0015D21B       aKbF6
 0003:0015D21E       aKbF7
 0003:0015D221       aKbF8
 0003:0015D224       aKbF9
 0003:0015D227       aKbF10
 0003:0015D22B       aKbNumlock
 0003:0015D233       aKbScrlock
 0003:0015D23B       aKbKp7
 0003:0015D240       aKbKp8
 0003:0015D245       aKbKp9
 0003:0015D24A       aKbKpMins
 0003:0015D24F       aKbKp4
 0003:0015D254       aKbKp5
 0003:0015D259       aKbKp6
 0003:0015D25E       aKbKpPlus
 0003:0015D263       aKbKp1
 0003:0015D268       aKbKp2
 0003:0015D26D       aKbKp3
 0003:0015D272       aKbKp0
 0003:0015D277       aKbKpDot
 0003:0015D27C       aKbBSlash
 0003:0015D27E       aKbF11
 0003:0015D282       aKbF12
 0003:0015D286       aKbEnter
 0003:0015D28C       aKbRightCtrl
 0003:0015D297       aKbKpSlash
 0003:0015D29C       aKbPrintScr
 0003:0015D2A6       aKbRightAlt
 0003:0015D2B0       aKbHome
 0003:0015D2B5       aKbUp
 0003:0015D2B8       aKbPgup
 0003:0015D2BD       aKbLeft
 0003:0015D2C2       aKbRight
 0003:0015D2C8       aKbEnd
 0003:0015D2CC       aKbDown
 0003:0015D2D1       aKbPgdn
 0003:0015D2D6       aKbInsert
 0003:0015D2DD       aKbDelete
 0003:0015D2E4       aSetup_screen_m
 0003:0015D2F9       aDataTextwalk_d
 0003:0015D30C       aD_0
 0003:0015D30F       aD_1
 0003:0015D314       aStrangeThingOw
 0003:0015D34C       aADBDCDDDGxDGyD
 0003:0015D371       aIntersect
 0003:0015D37C       aPersRestartCom
 0003:0015D39C       aOtherRestartCo
 0003:0015D3BD       aRcomErrorNextD
 0003:0015D3E4       aStillThingOnMa
 0003:0015D402       aStillSimpleOnM
 0003:0015D424       aD_2
 0003:0015D428       aFliColour256
 0003:0015D433       aFliSs2
 0003:0015D438       aFliColour
 0003:0015D440       aFliLc
 0003:0015D444       aFliBlack
 0003:0015D44B       aFliBrun
 0003:0015D451       aFliCopy
 0003:0015D457       aFliPstamp
 0003:0015D45F       aSlanguageSSyn_
 0003:0015D479       aDataSyn_ele_sm
 0003:0015D48A       aQdataSyn_mc_sm
 0003:0015D49B       aQdataSyn_fail_
 0003:0015D4AE       aQdataSyn_go_sm
 0003:0015D4BF       aSlanguageSChu_
 0003:0015D4D9       aDataChu_ele_sm
 0003:0015D4EA       aQdataZelMc_smk
 0003:0015D4FB       aQdataSyn_fai_0
 0003:0015D50E       aQdataZelGo_smk
 0003:0015D51F       aQdataDemo1D_fl
 0003:0015D532       aNSyn2SwarsData
 0003:0015D54F       aDataMcomp_fli
 0003:0015D55E       aDataMcomp_fl_0
 0003:0015D56D       aDataMcomp_fl_1
 0003:0015D57C       aDataEquipNet02
 0003:0015D593       aDataEquipWep02
 0003:0015D5AB       aDataEquipWep_0
 0003:0015D5C4       aDataEquipWep_1
 0003:0015D5DD       aDataEquipMod02
 0003:0015D5F5       aDataEquipMod_0
 0003:0015D60E       aDataEquipMod_1
 0003:0015D628       aMemAllocD
 0003:0015D638       aD_51
 0003:0015D63B       aD_52
 0003:0015D63E       aD_54
 0003:0015D641       aD_55
 0003:0015D644       aGlobal3dStored
 0003:0015D660       aShaggedTrainSt
 0003:0015D677       aTellMdFailedEx
 0003:0015D6A0       aTriIdDDTriangu
 0003:0015D6DD       aDefault_tr
 0003:0015D6E8       aDefault_pt
 0003:0015D6F3       aCannotFindDD
 0003:0015D707       aL002ldN02ldL10
 0003:0015D721       aDelete_pointND
 0003:0015D73D       aEdge_points1Ed
 0003:0015D762       aEdge_points2Ed
 0003:0015D787       aRoute_to_pathL
 0003:0015D7B8       aExceededMaxPat
 0003:0015D7EE       aExceededMaxP_0
 0003:0015D824       aDDDD
 0003:0015D834       aCraterAtDDDept
 0003:0015D850       aMapsMap03d_scn
 0003:0015D861       aSS_0
 0003:0015D868       a04x
 0003:0015D86D       aS_13
 0003:0015D870       aSSS_0
 0003:0015D878       aS_14
 0003:0015D87B       aSSS_1
 0003:0015D883       aS_15
 0003:0015D886       aLost_txt
 0003:0015D88F       aD_22
 0003:0015D892       aS_16
 0003:0015D895       aDSDS
 0003:0015D8A1       aDSDS_0
 0003:0015D8AD       aDSDS_1
 0003:0015D8B9       aDSDS_2
 0003:0015D8C5       aDSDS_3
 0003:0015D8D1       aDSDS_4
 0003:0015D8DD       aDSDS_5
 0003:0015D8E9       aDSDS_6
 0003:0015D8F5       aDC
 0003:0015D8FA       aDC_0
 0003:0015D8FF       aSD
 0003:0015D906       aSD_0
 0003:0015D90D       aDS
 0003:0015D914       aD_23
 0003:0015D917       aD_24
 0003:0015D91A       aD_25
 0003:0015D91D       aD_26
 0003:0015D920       aD_27
 0003:0015D923       aD_28
 0003:0015D926       aD_29
 0003:0015D929       aD_30
 0003:0015D92C       aD_31
 0003:0015D92F       aD_32
 0003:0015D932       aD_33
 0003:0015D937       aD_34
 0003:0015D93A       aD_35
 0003:0015D93D       aD_36
 0003:0015D940       aD_37
 0003:0015D943       aSD_1
 0003:0015D949       aSD_2
 0003:0015D94F       aSSD
 0003:0015D958       aSSD_0
 0003:0015D961       aD_38
 0003:0015D964       aD_39
 0003:0015D967       aD_40
 0003:0015D96A       aD_41
 0003:0015D96D       aD_42
 0003:0015D970       aD_43
 0003:0015D973       aD_44
 0003:0015D976       aD_45
 0003:0015D979       aD_46
 0003:0015D97C       aSD_3
 0003:0015D982       aSD_4
 0003:0015D988       aSSD_1
 0003:0015D991       aSSD_2
 0003:0015D99A       aD_47
 0003:0015D99D       aSD_5
 0003:0015D9A3       aSD_6
 0003:0015D9AC       aSD_7
 0003:0015D9B2       aD_48
 0003:0015D9B5       aSD_8
 0003:0015D9BB       aSD_9
 0003:0015D9C1       aAltS
 0003:0015D9C8       aS_17
 0003:0015D9CB       aFooD
 0003:0015D9D2       a___
 0003:0015D9D6       a____0
 0003:0015D9DA       aSS_1
 0003:0015D9E1       aS_18
 0003:0015D9E5       aSD_10
 0003:0015D9EC       a02d02d
 0003:0015D9F6       a02d02d_0
 0003:0015DA00       aAm
 0003:0015DA03       aPm
 0003:0015DA06       aS_19
 0003:0015DA09       a02d02d02d_0
 0003:0015DA18       aD_49
 0003:0015DA1B       aD_50
 0003:0015DA1E       a02d02d_1
 0003:0015DA28       a02dnc
 0003:0015DA2F       aSFont01_dat
 0003:0015DA3E       aSFont01_tab
 0003:0015DA4D       aSFont02_dat
 0003:0015DA5C       aSFont02_tab
 0003:0015DA6B       aSFont03_dat
 0003:0015DA7A       aSFont03_tab
 0003:0015DA89       aSFont04_dat
 0003:0015DA98       aSFont04_tab
 0003:0015DAA7       aSFont05_dat
 0003:0015DAB6       aSFont05_tab
 0003:0015DAC5       aDataMapout02d_
 0003:0015DAD9       aCouldnTReadInD
 0003:0015DAFE       aDataMapinsid_d
 0003:0015DB10       a01234567890
 0003:0015DB1C       aDataBgtables_d
 0003:0015DB2E       aDataStartgho_d
 0003:0015DB40       aDataSProj_pal
 0003:0015DB50       aModem_cfg
 0003:0015DB5A       aDataBgtables_0
 0003:0015DB6C       aDataStartgho_0
 0003:0015DB7E       aDataSProj_pa_0
 0003:0015DB8E       aModem_cfg_0
 0003:0015DB98       aSlanguageSIn_0
 0003:0015DBB0       aIntroIntro_s_0
 0003:0015DBC0       aSMail03d_txt
 0003:0015DBD0       aSMiss03d_txt
 0003:0015DBE1       aD_3
 0003:0015DBE4       aD_4
 0003:0015DBE7       aD_5
 0003:0015DBEA       aSMail03d_txt_0
 0003:0015DBFA       aSMiss03d_txt_0
 0003:0015DC0A       aSynii_0
 0003:0015DC10       aMapsMap03d_s_0
 0003:0015DC21       aQdataPal_pal
 0003:0015DC2F       aDataTables_d_0
 0003:0015DC3F       aDataSynghost_0
 0003:0015DC51       a0
 0003:0015DC53       aC
 0003:0015DC57       aNc
 0003:0015DC5A       aRef
 0003:0015DC60       aQdataPal_pal_2
 0003:0015DC6E       aQdataPal_pal_3
 0003:0015DC7C       aQdataPal_pal_4
 0003:0015DC8A       aD20sTDIdD
 0003:0015DCA4       aSSaidNothing_
 0003:0015DCB5       aSS_2
 0003:0015DCBC       aS_20
 0003:0015DCBF       aCCSC
 0003:0015DCC8       aDD
 0003:0015DCD0       aD_56
 0003:0015DCD3       aNoObjective
 0003:0015DCE0       aBadPhwoarTypeD
 0003:0015DCF3       aXYZ0xX0xX0xXOw
 0003:0015DD2C       aThDIdD
 0003:0015DD38       aThDIdD_0
 0003:0015DD44       aD_53
 0003:0015DD48       aU
 0003:0015DD4B       aIu
 0003:0015DD53       aIgnoreEnemies
 0003:0015DD62       aLoopComD
 0003:0015DD6E       aGoToPointXDYDZ
 0003:0015DD86       aPlaySampleD
 0003:0015DD95       aRunToPointXDZD
 0003:0015DDAA       aGotopointFaceD
 0003:0015DDC4       aKillEveryone
 0003:0015DDD2       aWithinAreaXDYD
 0003:0015DDEA       aWithinOff
 0003:0015DDF5       aExecuteComsPly
 0003:0015DE09       aGuardOff
 0003:0015DE13       aHardAsAgent
 0003:0015DE21       aPingExist
 0003:0015DE2C       aStartDangerMus
 0003:0015DE3F       aSelf_destruct
 0003:0015DE4D       aGoToPersonD
 0003:0015DE5D       aCameraTrackD
 0003:0015DE6D       aKillPersonD
 0003:0015DE7C       aKillDMemGroupD
 0003:0015DE91       aUntruceGroupD
 0003:0015DEA2       aKillAllGroupD
 0003:0015DEB4       aFollowPersonD
 0003:0015DEC5       aProtectMemGD
 0003:0015DED6       aSupportPersonD
 0003:0015DEE8       aProtectPersonD
 0003:0015DF01       aBlockPersonD
 0003:0015DF11       aScarePersonD
 0003:0015DF21       aPersuadePerson
 0003:0015DF34       aPersuadeAllGD
 0003:0015DF46       aPersuadeDMemGD
 0003:0015DF5B       aAvoidPersonD
 0003:0015DF6B       aWandAvoidGroup
 0003:0015DF7F       aHide
 0003:0015DF84       aDestroyBuildin
 0003:0015DF98       aCatchTrainD
 0003:0015DFA7       aCatchFerryD
 0003:0015DFB6       aExitFerryD
 0003:0015DFC4       aOpenDomeD
 0003:0015DFD1       aCloseDomeD
 0003:0015DFDF       aLockBuildD
 0003:0015DFED       aUnlockBuildD
 0003:0015DFFD       aGetItemD
 0003:0015E009       aSelectWeaponS
 0003:0015E01B       aUseWeaponS
 0003:0015E029       aDropSpecItemD
 0003:0015E03B       aDropWeaponS
 0003:0015E04A       aUseVehicleD
 0003:0015E059       aExitVehicle
 0003:0015E066       aWaitPVDeadD
 0003:0015E077       aWaitPVINearD
 0003:0015E08A       aPingPVD
 0003:0015E096       aWaitPVIArrives
 0003:0015E0B8       aWaitPPersuaded
 0003:0015E0CC       aWaitDMemGDeadD
 0003:0015E0E2       aWaitDMemGDNear
 0003:0015E0F9       aWaitDMemGArriv
 0003:0015E111       aWaitDMemGPersu
 0003:0015E12C       aWaitAllGDeadD
 0003:0015E13F       aWaitAllGDNear
 0003:0015E153       aWaitAllGArrive
 0003:0015E168       aWaitAllGPersua
 0003:0015E180       aWaitMissionSta
 0003:0015E196       aWaitMissionSuc
 0003:0015E1AB       aWaitMissionFai
 0003:0015E1C0       aWaitObjectDest
 0003:0015E1E5       aWaitTimeD
 0003:0015E1F2       aWaitObj
 0003:0015E1FD       aWandPVDeadD
 0003:0015E20E       aWandPVINearD
 0003:0015E221       aWandPVIArrives
 0003:0015E243       aWandPPersuaded
 0003:0015E257       aWandDMemGDDead
 0003:0015E26E       aWandDMemGDNear
 0003:0015E285       aWandDMemGArriv
 0003:0015E29D       aWandDMemGPersu
 0003:0015E2B8       aWandAllGDeadD
 0003:0015E2CB       aWandAllGDNear
 0003:0015E2DF       aWandAllGArrive
 0003:0015E2F4       aWandAllGPersua
 0003:0015E30C       aWandObj
 0003:0015E317       aWandMissionSta
 0003:0015E32D       aWandMissionSuc
 0003:0015E342       aWandMissionFai
 0003:0015E357       aWandObjectDest
 0003:0015E37C       aWandTimeD
 0003:0015E389       aUntilGDNotSeen
 0003:0015E39D       aUntilPVDeadD
 0003:0015E3AF       aUntilPVINearD
 0003:0015E3C3       aUntilPVIArrive
 0003:0015E3E6       aUntilPPersuade
 0003:0015E3FB       aUntilDMemGDead
 0003:0015E412       aUntilDMemGDNea
 0003:0015E42A       aUntilDMemGArri
 0003:0015E443       aUntilDMemGPers
 0003:0015E45F       aUntilAllGDeadD
 0003:0015E473       aUntilAllGDNear
 0003:0015E488       aUntilAllGArriv
 0003:0015E49E       aUntilAllGPersu
 0003:0015E4B7       aUntilObj
 0003:0015E4C3       aUntilMissionSt
 0003:0015E4DA       aUntilMissionSu
 0003:0015E4F0       aUntilMissionFa
 0003:0015E506       aUntilObjectDes
 0003:0015E52C       aUntilTimeD
 0003:0015E53A       aStateDSMoodDGD
 0003:0015E56F       aF08xSpdDOfDHeD
 0003:0015E5A1       aF208xF3XCwDWcX
 0003:0015E5D4       aTarg2DPtargXGo
 0003:0015E5F0       aDa
 0003:0015E5F3       aRe
 0003:0015E5F6       aSi
 0003:0015E5F9       aDe
 0003:0015E5FC       aCh
 0003:0015E5FF       aCi
 0003:0015E602       aSap
 0003:0015E606       aSta
 0003:0015E60A       aTrig
 0003:0015E60F       aPersonLastdist
 0003:0015E631       aVehicle
 0003:0015E639       aTypeD
 0003:0015E641       aBDLDADBrDSkD
 0003:0015E65C       aT1DT2DCtDRtDBc
 0003:0015E67A       aNDFDXDZD
 0003:0015E691       aWepNull
 0003:0015E692       aWepUzi
 0003:0015E697       aWepMinigun
 0003:0015E6A0       aWepLaser
 0003:0015E6A7       aWepElLaser
 0003:0015E6B7       aWepRap
 0003:0015E6BC       aWepNuclGren
 0003:0015E6CD       aWepPersuadrtrn
 0003:0015E6DC       aWepFlamer
 0003:0015E6E4       aWepH2HTaser
 0003:0015E6F5       aWepCrazyGas
 0003:0015E700       aWepKOGas
 0003:0015E70E       aWepEleMine
 0003:0015E71D       aWepExplMine
 0003:0015E72D       aWepNapalmMine
 0003:0015E73D       aWepLongRange
 0003:0015E749       aWepAirStrike
 0003:0015E755       aWepBeam
 0003:0015E75B       aWepRazorWire
 0003:0015E767       aWepSonicBlast
 0003:0015E774       aWepQDevastator
 0003:0015E782       aWepPersuader2
 0003:0015E792       aWepStasisFld
 0003:0015E7A0       aWepEnergyShld
 0003:0015E7AF       aWepSoulGun
 0003:0015E7B9       aWepTimeGun
 0003:0015E7C3       aWepCerebusIff
 0003:0015E7D0       aWepMedi1
 0003:0015E7D8       aWepMedi2
 0003:0015E7E0       aWepExplWire
 0003:0015E7EE       aWepCloneShld
 0003:0015E7FC       aEmptyItm0
 0003:0015E7FD       aEmptyItm1
 0003:0015E7FE       aEmptyItm2
 0003:0015E7FF       aEmptyItm3
 0003:0015E800       aEmptyItm4
 0003:0015E801       aEmptyItm5
 0003:0015E802       aEmptyItm6
 0003:0015E804       aDataMech_txt
 0003:0015E812       aDataMech_dat
 0003:0015E820       aPathlengthDPat
 0003:0015E844       aSMap03d_mad
 0003:0015E854       aMy_big_map
 0003:0015E85F       aObjTextures
 0003:0015E868       aObjFace_text
 0003:0015E872       aObjObject_poi
 0003:0015E87D       aObjObject_fac
 0003:0015E888       aObjObjects
 0003:0015E890       aObjQuick_lig
 0003:0015E89A       aObjFull_lights
 0003:0015E8A6       aObjNormals
 0003:0015E8AE       aObjObject_fa4
 0003:0015E8B9       aObjAnim_tmaps
 0003:0015E8C4       aObjTraffic_no
 0003:0015E8CF       aObjLight_comm
 0003:0015E8DA       aObjCol_vects_l
 0003:0015E8E6       aObjCol_vects_0
 0003:0015E8F0       aObjWalk_headers
 0003:0015E8FD       aObjWalk_items
 0003:0015E908       aObjCol_columns
 0003:0015E914       aNext_trafficD
 0003:0015E927       aDataTitFont_da
 0003:0015E939       aDataTitFont_ta
 0003:0015E94B       aDataNamFont_da
 0003:0015E95D       aDataNamFont_ta
 0003:0015E96F       aDataQotFont_da
 0003:0015E981       aDataQotFont_ta
 0003:0015E993       aOuttro_txt
 0003:0015E99E       aDataPeople_txt
 0003:0015E9AE       aEnd
 0003:0015E9B2       aEnd_0
 0003:0015E9B6       aDataOutroZ_smk
 0003:0015E9C7       aDataOutroS_smk
 0003:0015E9D8       aDataOutroZ_raw
 0003:0015E9E9       aDataOutroS_raw
 0003:0015E9FA       aQdataPal_pal_0
 0003:0015EA0C       aD_6
 0003:0015EA0F       aD_7
 0003:0015EA12       aD_8
 0003:0015EA15       aD_9
 0003:0015EA18       aD_10
 0003:0015EA1B       aQdataEquipCDbo
 0003:0015EA32       aQdataEquipCDbb
 0003:0015EA4A       aQdataEquipCDaD
 0003:0015EA63       aQdataEquipCDlD
 0003:0015EA7C       aQdataEquipCDbi
 0003:0015EA93       aQdataEquipCD_0
 0003:0015EAAB       aQdataEquipCD_1
 0003:0015EAC4       aQdataEquipCD_2
 0003:0015EADD       aQdataEquipCD_3
 0003:0015EAF5       aD_11
 0003:0015EAF8       aD_12
 0003:0015EAFB       aD_13
 0003:0015EAFE       aSCDb_dat
 0003:0015EB0B       aSCDbb_dat
 0003:0015EB19       aSCDaD_dat
 0003:0015EB28       aSCDlD_dat
 0003:0015EB37       a04x_0
 0003:0015EB3C       aD_14
 0003:0015EB3F       aS
 0003:0015EB42       aS_0
 0003:0015EB45       aS_1
 0003:0015EB48       aS_2
 0003:0015EB4B       aS_3
 0003:0015EB4E       aS_4
 0003:0015EB51       aS_5
 0003:0015EB54       aS_6
 0003:0015EB57       aS_7
 0003:0015EB5A       aD_15
 0003:0015EB5D       aD_16
 0003:0015EB60       aSoundSyncreds_
 0003:0015EB73       aSoundSound_dat
 0003:0015EB83       aSoundSound_d_0
 0003:0015EB93       aDIdDTypeDSampl
 0003:0015EBCD       aDIdDTypeDSam_0
 0003:0015EC00       aD_17
 0003:0015EC03       aD_18
 0003:0015EC06       aBreakoutEnteringLevel
 0003:0015EC1A       aS_8
 0003:0015EC1D       aBreakoutBadLuck
 0003:0015EC27       aBreakoutGameOver
 0003:0015EC31       aBreakoutCongratulation
 0003:0015EC41       aBreakoutBonusGameCompl
 0003:0015EC55       aBreakoutBonusItem
 0003:0015EC60       aBreakoutAwarded
 0003:0015EC68       aMarkIsGreat
 0003:0015EC76       aForAllWeapons
 0003:0015EC86       aBreakoutDestroyTheBric
 0003:0015EC99       aBreakoutFortification
 0003:0015ECA7       aBreakoutBullfrogForeve
 0003:0015ECB8       aBreakoutBricky
 0003:0015ECBF       aBreakoutStiffUpperLip
 0003:0015ECCF       aBreakoutRaindropsKeep_
 0003:0015ECE1       aBreakoutDownTheSpout
 0003:0015ECF0       aBreakoutUpTheTube
 0003:0015ECFC       aBreakoutEurocorp
 0003:0015ED05       aBreakoutTheBullfrogCha
 0003:0015ED1C       aPath
 0003:0015ED21       aRb
 0003:0015ED24       aErrorDecompres
 0003:0015ED3C       aD_19
 0003:0015ED40       aDebug_bf_audio
 0003:0015ED4F       aSoundDig_ini
 0003:0015ED5D       aSoundMdi_ini
 0003:0015ED6B       aSound_2
 0003:0015ED71       aSound_3
 0003:0015ED77       aSDig_ini
 0003:0015ED82       aSMdi_ini
 0003:0015ED8D       aBf1MaD
 0003:0015ED9D       aBf2SaD
 0003:0015EDAD       aBf54MaD
 0003:0015EDBD       aBf55SaD
 0003:0015EDCD       aBf56MusicDrive
 0003:0015EDE7       aBf57SoundDrive
 0003:0015EE04       aBf42LoadSoundB
 0003:0015EE1F       aBf43LoadSoundB
 0003:0015EE51       aBf44LoadSoundB
 0003:0015EE84       aBf45LoadSoundB
 0003:0015EEA5       aBf46LoadSoundB
 0003:0015EED5       aBf47LoadSoundB
 0003:0015EF0C       aBf47LoadSoun_0
 0003:0015EF3D       aBf47LoadSoun_1
 0003:0015EF74       aBf47LoadSoun_2
 0003:0015EFA6       aSSound_dat
 0003:0015EFB3       aSoundDataSizeD
 0003:0015EFCC       aBf48LoadMusicB
 0003:0015EFE7       aBf49LoadMusicB
 0003:0015F019       aBf50LoadMusicB
 0003:0015F04C       aBf51LoadMusicB
 0003:0015F06D       aBf52LoadMusicB
 0003:0015F09D       aBf53LoadMusicB
 0003:0015F0D4       aBf53LoadMusi_0
 0003:0015F105       aBf53LoadMusi_1
 0003:0015F13F       aSMusic_dat
 0003:0015F14C       aErrorAllocatio
 0003:0015F163       aPressReturnT_0
 0003:0015F17D       aErrorFileS_
 0003:0015F18E       aPressReturnToC
 0003:0015F1A8       aVesa
 0003:0015F1B0       aSpacetecCopyrght
 0003:0015F54B       aSpaceballName
 0003:0015F565       a1d
 0003:0015F569       a0x
 0003:0015F579       aC_0
 0003:0015F580       aVipport
 0003:0015F588       aVfx1Cyberpuck
 0003:0015F598       aBu
 0003:0015F59B       aBu_0
 0003:0015F59E       aBu_1
 0003:0015F5A1       aBu_2
 0003:0015F5A4       aBuxxX
 0003:0015F5AB       a1_0
 0003:0015F5AF       aStation
 0003:0015F5B7       aNone
 0003:0015F5BC       aSStationNoD
 0003:0015F5CE       aRadicaReturned
 0003:0015F5E9       aQuittingRadica
 0003:0015F5FA       aSendingMyJoinP
 0003:0015F627       aSendingMyJoi_0
 0003:0015F654       aYippeyImInTheG
 0003:0015F676       aRead
 0003:0015F67C       aCheck
 0003:0015F683       aCheckDone
 0003:0015F68F       aBadReadX
 0003:0015F69C       aDoneRead
 0003:0015F6A7       aSendingHostInf
 0003:0015F6D1       aSendingExchang
 0003:0015F6FF       aResendingPacke
 0003:0015F72C       aMaxPlayersDNoP
 0003:0015F74A       aPlayerSWishesT
 0003:0015F764       aStationNoD
 0003:0015F773       aSessionNameS
 0003:0015F784       aPlayerNoD
 0003:0015F794       aTimeout
 0003:0015F7A0       aRt
 0003:0015F7A3       aT
 0003:0015F7A5       aP
 0003:0015F7AB       aC_1
 0003:0015F7AE       aRing
 0003:0015F7B3       aRing_0
 0003:0015F7B8       aAta
 0003:0015F7BC       aAta_0
 0003:0015F7C8       aError_log
 0003:0015F7D2       aError
 0003:0015F7DC       aSb16_dig
 0003:0015F7E8       aSbpro_dig
 0003:0015F7F4       aSblaster_dig
 0003:0015F804       aBf3InitSound
 0003:0015F817       aBf4DefaultSoun
 0003:0015F838       aBf5NoSamplesRe
 0003:0015F864       aBf6NoSamplesRe
 0003:0015F883       aMdsound
 0003:0015F88B       aBf8MdsoundEnvi
 0003:0015F8AE       aSXDDD
 0003:0015F8BD       aBf9MdsoundEnvi
 0003:0015F8F6       aNone_0
 0003:0015F8FB       aS_9
 0003:0015F8FE       aBf10MdsoundEnv
 0003:0015F937       aBf11SearchForD
 0003:0015F95E       aNone_1
 0003:0015F963       aBf12UserReques
 0003:0015F991       aBf13Dig_iniDri
 0003:0015F9BE       aNone_2
 0003:0015F9C3       aBf14Dig_iniDri
 0003:0015F9EA       aNone_3
 0003:0015F9EF       aBf15SearchForD
 0003:0015FA13       aBf16AllDigDriv
 0003:0015FA47       aBf18DetermineS
 0003:0015FA71       aBf19Loadsounds
 0003:0015FA8D       aBf20CannotAllo
 0003:0015FAB9       aNone_4
 0003:0015FABE       aBf24InitSoundC
 0003:0015FADB       aBf19D
 0003:0015FAE5       aNoSound_dat
 0003:0015FAF6       aCannotAllocate
 0003:0015FB0A       aNotPresentInSo
 0003:0015FB27       aAllocationSucc
 0003:0015FB44       aBf25InitMusic
 0003:0015FB57       aSSample
 0003:0015FB61       aS_ad
 0003:0015FB67       aBf26Sample_adN
 0003:0015FB83       aS_opl
 0003:0015FB8A       aBf27Sample_opl
 0003:0015FBA7       aMdmusic
 0003:0015FBAF       aBf29MdmusicEnv
 0003:0015FBD2       aSXDDD_0
 0003:0015FBE1       aBf30MdmusicEnv
 0003:0015FC1A       aBf31MdmusicEnv
 0003:0015FC53       aS_10
 0003:0015FC56       aBf32SearchForM
 0003:0015FC7A       aNone_5
 0003:0015FC7F       aBf33UserReques
 0003:0015FCAA       aBf34Mdi_iniDri
 0003:0015FCD7       aBf35Mdi_iniDri
 0003:0015FD04       aBf36SearchForM
 0003:0015FD28       aBf37AllMusicDr
 0003:0015FD5E       aAdlib_mdi
 0003:0015FD68       aF_0
 0003:0015FD6A       aAdlibg_mdi
 0003:0015FD75       aF_1
 0003:0015FD77       aOpl3_mdi
 0003:0015FD80       aF_2
 0003:0015FD82       aPas_mdi
 0003:0015FD8A       aF_3
 0003:0015FD8C       aPasplus_mdi
 0003:0015FD98       aF_4
 0003:0015FD9A       aSblaster_mdi
 0003:0015FDA7       aF_5
 0003:0015FDA9       aSbpro1_mdi
 0003:0015FDB4       aF_6
 0003:0015FDB6       aSbpro2_mdi
 0003:0015FDC1       aF_7
 0003:0015FDC3       aEsfm_mdi
 0003:0015FDCC       aF_8
 0003:0015FDCE       aSbawe32_mdi
 0003:0015FDDA       aW_0
 0003:0015FDDC       aG_4
 0003:0015FDDE       aBf38Awe32Sound
 0003:0015FE00       aBf38Awe32Sou_0
 0003:0015FE1F       aMpu401_mdi
 0003:0015FE2A       aG
 0003:0015FE2C       aSndscape_mdi
 0003:0015FE39       aG_0
 0003:0015FE3B       aUltra_mdi
 0003:0015FE45       aG_1
 0003:0015FE47       aMt32mpu_mdi
 0003:0015FE53       aR
 0003:0015FE55       aG_2
 0003:0015FE59       aBf39MusicDrive
 0003:0015FE81       aBf40MusicSBank
 0003:0015FEA0       aW
 0003:0015FEA2       aNotPresentInMu
 0003:0015FEBF       aG_3
 0003:0015FEC1       aBf40aMusicSBan
 0003:0015FEE1       aNoMusic_dat
 0003:0015FEF2       aCannotAlloca_0
 0003:0015FF06       aNotPresentIn_0
 0003:0015FF23       aAllocationSu_0
 0003:0015FF3D       aBf40LoadmusicD
 0003:0015FF58       aBf41InitMusicC
 0003:0015FF78       aBf100CannotAll
 0003:0015FFAC       aBf100CannotA_0
 0003:0015FFDF       aBf100UnknownSt
 0003:00160008       aBf101CannotOpenFile
 0003:00160025       aBf101CannotOpe
 0003:00160042       aBf103Oversized
 0003:00160068       aGotAdpcmBlock
 0003:00160078       aPanPositionDPa
 0003:001600B0       aSS_5
 0003:001600B5       aSS_6
 0003:001600BA       a__0
 0003:001600BC       a__
 0003:001600BF       aSS_7
 0003:001600C5       aSS_8
 0003:001600CA       a__1
 0003:001600CE       aD_57
 0003:001600D2       aTimeBtwReads
 0003:001600F4       a_02u_02u_02u__
 0003:00160118       aAil_debug
 0003:00160124       aAil_sys_debug
 0003:00160134       aOpenFlags_WpT
 0003:00160138       aHorizLn
 0003:0016018C       aAilVarsion
 0003:00160194       aAilFullName
 0003:001601DC       aAilStartTime
 0003:001601EC       aHorizLn2
 0003:00160240       aAil_startup
 0003:00160250       aAil_shutdown
 0003:00160260       aAil_set_prefer
 0003:0016027C       aAilResultD
 0003:0016028C       aAil_get_real_v
 0003:001602A8       aAilResult0xX
 0003:001602B8       aAil_set_real_v
 0003:001602D8       aAil_set_use16_
 0003:001602F8       aAil_restore_us
 0003:00160314       aAil_call_drive
 0003:0016033C       aAil_delayD
 0003:0016034C       aAil_api_read_i
 0003:00160368       aAilDriverS
 0003:00160378       aAilDeviceS
 0003:00160388       aAilIoX
 0003:00160398       aAilIrqD
 0003:001603A8       aAilDma_8D
 0003:001603B8       aAilDma_16D
 0003:001603C8       aAilResultU
 0003:001603D8       aAil_register_t
 0003:001603F4       aAil_set_time_1
 0003:00160410       aAil_set_timer_
 0003:00160430       aAil_set_time_0
 0003:00160450       aAil_set_time_2
 0003:00160470       aAil_interrupt_
 0003:0016048C       aAil_start_time
 0003:001604A4       aAil_start_all_
 0003:001604BC       aAil_stop_timer
 0003:001604D0       aAil_stop_all_t
 0003:001604E8       aAil_release_ti
 0003:00160508       aAil_release_al
 0003:00160524       aAil_get_io_env
 0003:00160544       aAil_install_dr
 0003:00160564       aAil_uninstal_1
 0003:00160580       aAil_install_di
 0003:0016059C       aAil_install__0
 0003:001605C4       aAil_uninstall_
 0003:001605E4       aAil_allocate_s
 0003:00160608       aAil_allocate_f
 0003:00160630       aAil_release_sa
 0003:00160654       aAil_init_sampl
 0003:0016066C       aAil_set_sample
 0003:00160690       aAil_set_samp_5
 0003:001606B8       aAil_set_samp_6
 0003:001606DC       aAil_start_samp
 0003:001606F4       aAil_stop_sampl
 0003:0016070C       aAil_resume_sam
 0003:00160728       aAil_end_sample
 0003:00160740       aAil_set_samp_0
 0003:00160768       aAil_set_samp_1
 0003:00160788       aAil_set_samp_2
 0003:001607A8       aAil_set_samp_3
 0003:001607CC       aAil_sample_sta
 0003:001607E8       aAil_sample_pla
 0003:00160808       aAil_sample_vol
 0003:00160824       aAil_sample_pan
 0003:0016083C       aAil_sample_loo
 0003:0016085C       aAil_set_digita
 0003:00160884       aAil_digital_ma
 0003:001608A8       aAil_install__2
 0003:001608D4       aAil_minimum_sa
 0003:00160900       aAil_sample_buf
 0003:00160920       aAil_load_sampl
 0003:0016094C       aAil_set_samp_7
 0003:00160970       aAil_sample_pos
 0003:0016098C       aAil_register_s
 0003:001609B4       aAil_register_1
 0003:001609DC       aAil_register_e
 0003:00160A04       aAil_register_2
 0003:00160A2C       aAil_set_samp_4
 0003:00160A54       aAil_sample_use
 0003:00160A74       aAil_active_sam
 0003:00160A94       aAil_install_md
 0003:00160AB0       aAil_install__1
 0003:00160AD8       aAil_uninstal_0
 0003:00160AF8       aAil_allocate_0
 0003:00160B1C       aAil_release_se
 0003:00160B40       aAil_init_seque
 0003:00160B64       aAil_start_sequ
 0003:00160B80       aAil_stop_seque
 0003:00160B9C       aAil_resume_seq
 0003:00160BB8       aAil_end_sequen
 0003:00160BD0       aAil_set_sequen
 0003:00160BF4       aAil_set_sequ_0
 0003:00160C1C       aAil_set_sequ_1
 0003:00160C44       aAil_sequence_s
 0003:00160C60       aAil_sequence_t
 0003:00160C7C       aAil_sequence_v
 0003:00160C98       aAil_sequence_l
 0003:00160CB8       aAil_set_xmidi_
 0003:00160CE0       aAil_xmidi_mast
 0003:00160D00       aAil_install__3
 0003:00160D2C       aAil_mdi_driver
 0003:00160D48       aAil_set_gtl_fi
 0003:00160D6C       aAil_timbre_sta
 0003:00160D8C       aAil_install_ti
 0003:00160DAC       aAil_protect_ti
 0003:00160DCC       aAil_unprotect_
 0003:00160DF0       aAil_active_seq
 0003:00160E14       aAil_controller
 0003:00160E38       aAil_channel_no
 0003:00160E54       aAil_sequence_p
 0003:00160E7C       aResultDD
 0003:00160E8C       aAil_branch_ind
 0003:00160EA8       aAil_register_p
 0003:00160ED4       aAil_register_0
 0003:00160F00       aAil_register_3
 0003:00160F2C       aAil_register_b
 0003:00160F54       aAil_register_4
 0003:00160F7C       aAil_register_5
 0003:00160FA8       aAil_set_sequ_2
 0003:00160FD0       aAil_sequence_u
 0003:00160FF4       aAil_register_i
 0003:00161018       aAil_lock_chann
 0003:00161030       aAil_release_ch
 0003:00161050       aAil_map_sequen
 0003:00161078       aAil_true_seque
 0003:0016109C       aAil_send_chann
 0003:001610D8       aAil_send_sysex
 0003:001610FC       aAil_create_wav
 0003:0016112C       aAil_destroy_wa
 0003:00161150       aCdError
 0003:0016115C       aCannotAlloca_1
 0003:00161178       aNoCdDriveOrMsc
 0003:0016119D       aCdErrorS
 0003:001611AB       aCouldNotAlloca
 0003:001611D1       aCdOk
 0003:001611D8       aNoDaTracksToPl
 0003:001611EE       aCdHeadAt02dm02
 0003:0016121D       aCdErrorD
 0003:0016122B       aCdErrorD_0
 0003:00161239       aWriteProtectVi
 0003:00161251       aUnknownUnit
 0003:0016125E       aDriveNotReady
 0003:0016126E       aUnknownCommand
 0003:0016127E       aCrcError
 0003:00161288       aBadDriveReques
 0003:001612AB       aSeekError
 0003:001612B6       aUnknownMedia
 0003:001612C4       aSectorNotFound
 0003:001612D5       aPrinterOutOfPa
 0003:001612EA       aWriteFault
 0003:001612F6       aReadFault
 0003:00161301       aGeneralFailure
 0003:00161311       aReserved
 0003:0016131A       aReserved_0
 0003:00161323       aInvalidDiskCha
 0003:00161338       aFloatingPointS
 0003:0016135C       aUndefinedError
 0003:0016136C       aRadicaNotPrope
 0003:0016138C       aBadParallelPor
 0003:001613A8       aMissingParalle
 0003:001613C4       aParallelPortIr
 0003:001613E0       aOtherComputerS
 0003:001613F8       aHeartbeatError
 0003:00161408       aCableTooLongOr
 0003:00161424       aOtherComputerI
 0003:00161440       aCollisionOnOth
 0003:0016145C       aOtherTransmitt
 0003:00161478       aLostAPacket
 0003:00161488       aTooFastTransmi
 0003:001614A0       aFalseAlarm
 0003:001614AC       aTransmitterCan
 0003:001614C4       aOtherComputerN
 0003:001614E4       aOtherComputerH
 0003:00161504       aCollisionOnThi
 0003:00161520       aOtherReceiverH
 0003:00161538       aNetworkOverloa
 0003:0016154C       aCannotGetTheNe
 0003:00161564       aTransmitWhileR
 0003:00161580       aUnexpectedRetr
 0003:0016159C       aNetworkBusy
 0003:001615AC       aUserAborted
 0003:001615BC       aRev0_08f
 0003:001615C8       aUndefinedConst
 0003:001615F4       aUndefinedMembe
 0003:00161630       aGettingHeaderB
 0003:00161645       aResendingD
 0003:00161653       aResendingDelta
 0003:00161667       aStartingExchan
 0003:00161680       aCompletedExcha
 0003:001616A4       aTrue
 0003:001616AA       aFalse
 0003:001616B1       aTxData
 0003:001616BB       a02x
 0003:001616C3       a02x_0
 0003:001616C9       aRxData
 0003:001616D3       a02x_1
 0003:001616DB       aStateChangeWai
 0003:001616FC       aTrue_0
 0003:00161701       aFalse_0
 0003:00161707       aWaiting_for_da
 0003:0016171D       aTrue_1
 0003:00161723       aFalse_1
 0003:0016172A       aSingleErrorDet
 0003:00161752       aDoubleErrorDet
 0003:0016177C       aTz
 0003:00161786       aCreated
 0003:0016178E       aAppended
 0003:00161797       aLogS
 0003:0016179E       a@02d02d02d
 0003:001617B3       a@
 0003:001617B8       aSD02dD
 0003:001617C9       a02d02dD
 0003:001617D7       a02d02d02d
 0003:001617E8       a?
 0003:001617EB       aExe
 0003:001617EF       aCom
 0003:001617F4       aLx
 0003:001617F8       aSbawe32_mdi_0
 0003:00161804       aW_2
 0003:00161806       aSS_sbk
 0003:00161810       aSbawe32_mdi_1
 0003:00161821       a123456789abc_1
 0003:00161834       aRt_0
 0003:00161838       aDriver
 0003:00161840       aDevice
 0003:00161848       aIo_addr
 0003:00161850       aIrq
 0003:00161854       aDma_8_bit
 0003:00161860       aDma_16_bit
 0003:0016186C       aCorrupted_iniF
 0003:00161884       aInsufficientMe
 0003:001618B0       aInsufficientLo
 0003:001618CC       aAil3dig
 0003:001618D4       aAil3mdi
 0003:001618DC       aInvalidDriverT
 0003:001618F4       aOutOfDriverHan
 0003:0016190C       aOutOfTimerHand
 0003:00161924       aMinimumDmaBuff
 0003:00161950       aCouldNotAllo_0
 0003:00161978       a_digDriverRequ
 0003:00161990       aDigitalSoundHa
 0003:001619B4       aCouldNotAllo_1
 0003:001619D4       aCouldNotAllo_2
 0003:001619F8       aCouldNotAllo_3
 0003:00161A20       aOutOfTimerHa_0
 0003:00161A38       aSS_3
 0003:00161A40       aDriverFileNotF
 0003:00161A58       aUnableToOpenFi
 0003:00161A78       aOutOfSampleHan
 0003:00161A90       aFmt
 0003:00161A98       aData
 0003:00161AA0       aCreative
 0003:00161AAC       aWave
 0003:00161AB4       aUnrecognized_0
 0003:00161ADC       aInvalidOrMis_0
 0003:00161AFC       aUnrecognizedDi
 0003:00161B24       aInvalidOrMissi
 0003:00161B44       aForm
 0003:00161B4C       aCat
 0003:00161B54       aXmid
 0003:00161B5C       aInternalNoteQu
 0003:00161B7C       aCouldNotAllo_4
 0003:00161BA4       a_mdiDriverRequ
 0003:00161BBC       aXmidiSoundHard
 0003:00161BDC       aCouldNotInitia
 0003:00161C08       aCouldNotAllo_5
 0003:00161C30       aOutOfTimerHa_1
 0003:00161C48       aSS_4
 0003:00161C50       aDriverFileNo_0
 0003:00161C68       aUnableToOpen_0
 0003:00161C88       aTandy3VoiceMus
 0003:00161C9C       aIbmInternalSpe
 0003:00161CB8       a_ad
 0003:00161CBC       a_opl
 0003:00161CC4       aOutOfSequenceH
 0003:00161CE0       aInvalidXmidiSe
 0003:00161CF8       aTimb
 0003:00161D00       aRbrn
 0003:00161D08       aEvnt
 0003:00161D10       aNoTimbresLoade
 0003:00161D24       aDriverCouldNot
 0003:00161D58       aDriverCouldN_0
 0003:00161D8C       aInsufficient_0
 0003:00161DB8       aNotEnoughMemor
 0003:00161DE8       aStackDataHasBe
 0003:00161E07       aViolationOfFun
 0003:00161E36       aThrowWhileTerm
 0003:00161E5F       aThrowDuringDes
 0003:00161EA1       aThrowWhileTe_0
 0003:00161ECA       aThrowDuringCon
 0003:00161EF2       aThrowDuringD_0
 0003:00161F21       aReThrowWhenNoE
 0003:00161F4C       aNoHandlerActiv
 0003:00161F76       aReThrowWhenN_0
 0003:00161FA1       aNoHandlerAct_0
 0003:00161FCB       aSystemExceptio
 0003:00161FF0       aNoMemoryLeftTo
 0003:0016201C       aAbnormalTermin
 0003:00162034       aReturnFromTerm
 0003:00162058       aReturnFromUnex
 0003:0016207C       _IsTable
 0003:001621E1       aFmamjjasondaeapauuuecoe
 0003:00177100       language_3str
 0003:00177104       fhandle
 0003:00177108       smack_malloc_used_tot
 0003:00177754       cd_drive
 0003:001807D4       unkn01_mode
 0003:00180C53       flags_general_unkn01
 0003:00180C81       selected_map_index
 0003:00180C87       cmdln_param_a
 0003:00180C89       cmdln_param_w
 0003:00180CBF       flags_general_unkn02
 0003:00197158       W?text_window_x1$nus
 0003:0019715A       W?text_window_y1$nus
 0003:0019715C       W?text_window_x2$nus
 0003:0019715E       W?text_window_y2$nus
 0003:00197228       prim4_textures
 0003:0019722C       prim_face_textures
 0003:00197230       prim_object_points
 0003:00197234       prim_object_faces
 0003:00197238       prim_object_faces4
 0003:0019723C       prim_objects
 0003:00197484       traffic_nodes
 0003:0019CB54       buf
 0003:0019CBDC       W?pop_sprites$n[]pn$TbSprite$$
 0003:0019CBE0       W?pop_sprites_end$n[]pn$TbSprite$$
 0003:0019CBE4       W?pop_data$n[]ul
 0003:0019CC2C       W?m_spr_data$n[]ul
 0003:0019CC34       W?m_sprites$n[]pn$TbSprite$$
 0003:0019CC38       W?m_sprites_end$n[]pn$TbSprite$$
 0003:0019CC3C       nfra_ani
 0003:0019CC40       nfra_ani_end
 0003:0019CC4C       mele_ani
 0003:0019CC50       mele_ani_end
 0003:0019CC54       nsta_ani
 0003:0019CC58       nsta_ani_end
 0003:0019EC6E       cmdln_param_d
 0003:0019EC71       game_perspective
 0003:0019F50C       pktrec_mode
 0003:0019F50D       cmdln_pr_num
 0003:0019F510       anim_tmaps
 0003:0019F514       commands
 0003:0019F518       used_objectives
 0003:0019F51C       used_lvl_objectives
 0003:0019F520       level_miscs
 0003:0019F524       objectives
 0003:0019F528       col_vects
 0003:0019F52C       walk_headers
 0003:0019F530       col_vects_list
 0003:0019F534       walk_items
 0003:0019F538       user_heap
 0003:0019F53C       my_big_map
 0003:0019F540       screen_point_pool
 0003:0019F544       draw_list
 0003:0019F548       sort_sprites
 0003:0019F54C       sort_lines
 0003:0019F550       col_columns
 0003:001A09C0       floor_tiles
 0003:001A09C4       light_commands
 0003:001A09C8       normals
 0003:001A09CC       quick_lights
 0003:001A09D0       full_lights
 0003:001A09D4       textures
 0003:001A09D8       face_textures
 0003:001A09DC       things
 0003:001A09E4       object_points
 0003:001A09E8       object_faces
 0003:001A09EC       object_faces4
 0003:001A09F0       objects
 0003:001A09F4       special_object_faces
 0003:001A09F8       special_object_faces4
 0003:001A5840       W?pointer_sprites$n[]pn$TbSprite$$
 0003:001A5844       W?pointer_sprites_end$n[]pn$TbSprite$$
 0003:001A5848       W?font0_sprites$n[]pn$TbSprite$$
 0003:001A584C       W?font0_sprites_end$n[]pn$TbSprite$$
 0003:001A5878       W?palette$npnuc
 0003:001A5880       W?game_text_str$npc
 0003:001A62BC       W?pointer_data$n__ul
 0003:001A62C0       W?font0_data$n[]ul
 0003:001A62DC       gameturn
 0003:001A71B2       in_network_game
 0003:001A71B3       cmdln_param_mp
 0003:001A71B4       cmdln_param_tf
 0003:001A71B5       cmdln_param_bcg
 0003:001AA278       vec_tmap
 0003:001AA2F8       mem_ptr
 0003:001AA988       palette_data
 0003:001AABA8       game_prev_object_count
 0003:001AABAC       game_prev_object_face_count
 0003:001AABB0       game_prev_object_face4_count
 0003:001AABB4       game_prev_object_point_count
 0003:001AABB8       game_prev_normal_count
 0003:001AABBC       game_prev_face_texture_count
 0003:001AABC0       game_prev_texture_count
 0003:001AABE4       tri_initialised
 0003:001AABEC       ix_Triangles
 0003:001AABF0       count_Triangles
 0003:001AABF4       free_Triangles
 0003:001AAC00       triangles
 0003:001AAC04       ix_Points
 0003:001AAC08       count_Points
 0003:001AAC0C       free_Points
 0003:001AAC18       points
 0003:001AAE48       W?Ex$n[]l
 0003:001AAFD8       W?Ey$n[]l
 0003:001AB168       ixE
 0003:001AB17C       tree_dad
 0003:001B2E7C       tree_val
 0003:001BAB7C       routeTags
 0003:001BCABC       tree_u18
 0003:001BCAC0       tree_u28
 0003:001BCAC4       tree_u38
 0003:001BCAC8       tree_u48
 0003:001BCAD4       tree_triA
 0003:001BCAD8       tree_triB
 0003:001BCADC       tree_CentreDest
 0003:001BCAE0       tree_routelen
 0003:001BCAE4       tree_routecost
 0003:001BCAE8       tree_route
 0003:001BF9C8       route_fwd
 0003:001C28A8       fwd_path
 0003:001C30BC       heap
 0003:001C34C0       heap_end
 0003:001C36C8       ix_EdgePoints
 0003:001C36CC       fringe_y
 0003:001C3ACC       fringe_x1
 0003:001C3AD0       fringe_y1
 0003:001C3AD4       fringe_x2
 0003:001C3AD8       fringe_y2
 0003:001C3ADC       fringe_map
 0003:001C4774       W?oinkey$:.0$:?KInt$f()vnuc
 0003:001C47C0       W?OldInt$npf()v
 0003:001C4A74       hotspot_buffer
 0003:001C4A78       back_buffer
 0003:001C4A80       sound_volume
 0003:001C4A82       sound_tension_music_volume
 0003:001C4A84       sound_music_volume
 0003:001C4B18       text
 0003:001C6D4C       out
 0003:001C6DF2       str
 0003:001C6F4C       buffer
 0003:001C7754       h
 0003:001C83D0       cmdln_param_n
 0003:001C83D4       game_bez_edit
 0003:001C83DA       len
 0003:001C8448       cmdln_param_map_index
 0003:001C8454       spare_map_buffer
 0003:001DC78C       W?purple_draw_list$npn$PurpleDrawItem$$
 0003:001DC790       W?purple_draw_index$nus
 0003:001E08C0       _lbMemoryAvailable
 0003:001E08D4       W?memory_blocks$n[]$mem_block$$
 0003:001E14D4       W?memory_arenas$n[]$mem_arena$$
 0003:001E2E48       W?samples_in_bank$nl
 0003:001E2E50       W?setup$:.0$:?LbScreenIsModeAvailable$n($TbScreenMode$$)lnul
 0003:001E2E54       lbDisplay__PhysicalScreen
 0003:001E2E58       lbDisplay__WScreen
 0003:001E2E5C       lbDisplay__GlassMap
 0003:001E2E60       lbDisplay__FadeTable
 0003:001E2E64       lbDisplay__GraphicsWindowPtr
 0003:001E2E68       lbDisplay__MouseSprite
 0003:001E2E6C       lbDisplay__PhysicalScreenWidth
 0003:001E2E70       lbDisplay__PhysicalScreenHeight
 0003:001E2E74       lbDisplay__GraphicsWindowX
 0003:001E2E78       lbDisplay__GraphicsWindowY
 0003:001E2E7C       lbDisplay__GraphicsWindowWidth
 0003:001E2E80       lbDisplay__GraphicsWindowHeight
 0003:001E2E84       lbDisplay__MouseWindowX
 0003:001E2E88       lbDisplay__MouseWindowY
 0003:001E2E8C       lbDisplay__MouseWindowWidth
 0003:001E2E90       lbDisplay__MouseWindowHeight
 0003:001E2EAC       lbDisplay__RMouseX
 0003:001E2EB0       lbDisplay__RMouseY
 0003:001E2EB4       lbDisplay__DrawFlags
 0003:001E2EB6       lbDisplay__OldVideoMode
 0003:001E2EB8       lbDisplay__ScreenMode
 0003:001E2ED0       __wint_thread_data
 0003:001E2F70       _lbExtendedKeyPress
 0003:001E2F74       _lbKeyOn
 0003:001E3074       _lbInkey
 0003:001E3078       _lbShift
 0003:001E56D8       W?fade_started$nuc
 0003:001E5A2C       _smack_draw_callback
 0003:001E5B50       _CurrentAwe32SoundfontPrefix
 0003:001E5C84       sb16_mixer_set
 0003:001E5C88       W?CurrentCDTrack$nus
 0003:001E5C8C       W?TrackLength$nul
 0003:001E5C90       W?CDCountdown$nyul
 0003:001E5C94       W?CDTimerActive$nyuc
 0003:001E5C98       W?CDCount_handle$nl
 0003:001E5EA4       _lbVesaData
 0003:001E5ED8       lbFontPtr
 0003:001E86BC       _LowSoundVolPanAddr
 0003:001E86D0       _LowSoundPurgeAddr
 0003:001E86D4       _LowSoundCheckAddr
 0003:001E86D8       _LowSoundPlayedAddr
 0003:001E86DC       _LowSoundCloseAddr
 0003:001E86E0       _DebugAudio
 0003:001E86E4       _SoundProgressMessage
 0003:001E87E4       _sample_id
 0003:001E8B04       _end_sample_id
 0003:001E8B08       _SoundInstalled
 0003:001E8B0A       _NumberOfSamples
 0003:001E8B18       _SoundType
 0003:001E8B1C       _SoundDriver
 0003:001E8B20       _AILStartupAlreadyInitiated
 0003:001E8C50       _UseCurrentAwe32Soundfont
 0003:001E8C51       _MusicInstalled
 0003:001E8C54       _MusicType
 0003:001E8C5C       _SongCurrentlyPlaying
 0003:001E8C5E       _NumberOfSongs
 0003:001E8C6C       _MusicDriver
 0003:001E8C70       _SongHandle
 0003:001E8C74       _DangerMusicFadeHandle
 0003:001E8C78       _Awe32SoundfontLoaded
 0003:001E8C7B       _DisableDangerMusic
 0003:001E8C7C       _DangerMusicVolume
 0003:001E8C7D       _DangerMusicFadeActive
 0003:001E8C7E       _DangerMusicAble
 0003:001E8E48       _StreamedSoundAble
 0003:001E8E49       _CDSpeed
 0003:001E8E4C       W?sample_handle$npn$_SAMPLE$$
 0003:001E8F50       W?sample_sign$nul
 0003:001E8F54       W?sample_format$nul
 0003:001E8F58       W?sample_rate$nus
 0003:001E8F5C       W?loop_count$nl
 0003:001E8F70       W?adpcm_file_open$nl
 0003:001E8F7C       W?stream_flags$nl
 0003:001E8F80       W?block_count$nl
 0003:001E8F84       W?position_offset$nl
 0003:001E8F88       W?pan_position$nl
 0003:001E8F8C       W?pan_rate$nl
 0003:001E8F90       W?pan_target$nl
 0003:001E8FA0       _file
 0003:001E8FA4       _AIL_debug
 0003:001E8FA8       _AIL_sys_debug
 0003:001E8FB4       _AIL_indent
 0003:001E90EC       W?current_da_track$nus
 0003:001E9104       W?track_start_sector$n[]ul
 0003:001E9290       W?track_lengths$n[]ul
 0003:001E941C       W?is_da_track$n[]uc
 0003:001E947F       W?cd_lowest_track$nuc
 0003:001E9480       W?cd_highest_track$nuc
 0003:001E9481       W?CD_Audio_Playing$nc
 0003:001E9484       W?cd_ioctli_low_mem$nul
 0003:001E9488       W?cd_data_low_mem$nul
 0003:001E948C       W?cd_total$nus
 0003:001E948E       W?cd_first$nus
 0003:001E9490       W?HeadLocationInfo$n$s_HeadLocationInfo$$
 0003:001E9498       W?DeviceStatusInfo$n$s_DeviceStatusInfo$$
 0003:001E94A0       W?AudioDiscInfo$n$s_AudioDiscInfo$$
 0003:001E94A8       W?AudioTrackInfo$n$s_AudioTrackInfo$$
 0003:001E94B0       W?AudioQChannelInfo$n$s_AudioQChannelInfo$$
 0003:001E94C8       W?IOCTLI$n$s_IOCTLI$$
 0003:001E94E4       W?SeekReq$n$s_SeekReq$$
 0003:001E94FC       W?PlayReq$n$s_PlayReq$$
 0003:001E9514       W?StopReq$n$s_StopReq$$
 0003:001E9524       W?ResumeReq$n$s_ResumeReq$$
 0003:001E9534       W?VolumeReq$n$s_IOCTLI$$
 0003:001E9550       W?control_real$nul
 0003:001E9554       W?control_selector$nul
 0003:001E9558       W?control_prot$npnuc
 0003:001E955C       ___ClosedStreams
 0003:001E9560       ___OpenStreams
 0003:001E9564       _clock_start
 0003:001E9568       W?sample_fade_handle$nl
 0003:001E956C       W?switch_off_sample_fade_timer$nyuc
 0003:001E956D       W?a_sample_is_fading$nyuc
 0003:001E956E       W?samples_currently_fading$nyuc
 0003:001E9570       W?current_sample_queue_count$nyul
 0003:001E9574       W?sample_queue_handle_initiated$nuc
 0003:001E9578       W?sample_queue_handle$npn$_SAMPLE$$
 0003:001EA47C       ___nheap_clean
 0003:001EA47D       ___fheap_clean
 0003:001EA480       _errno
 0003:001EA484       __doserrno
 0003:001ED5AC       static)argc
 0003:001ED5B0       static_argv
 0003:001ED5B4       splitprm_var1
 0003:001ED5B8       gmtime_var1
 0003:001ED5E0       _timeradjust
 0003:001ED5E4       _lasttimerread
 0003:001ED5E8       _SmackTimerSetupAddr
 0003:001ED5F0       W?sbkHandle$nl
 0003:001ED5F4       W?buffer$npfuc
 0003:001ED870       loctm_var1
 0003:001ED894       asciitm_var1
 0003:001EDB2C       W?EAL_pr$n$REGS$$
 0003:001EDB48       W?EAL_rmr$n$realmode_registers$$
 0003:001EDB7A       W?EAL_realmode_segment$nus

Program entry point at 0001:000D581C
